(lp0
(lp1
S'182'
p2
aS'182'
p3
aS'182'
p4
aS'182'
p5
aS'182'
p6
aS'182'
p7
aS'182'
p8
aS'182'
p9
aS'182'
p10
aS'182'
p11
aS'182'
p12
aS'182'
p13
aS'182'
p14
aS'182'
p15
aS'182'
p16
aS'182'
p17
aS'182'
p18
aS'182'
p19
aS'182'
p20
aS'182'
p21
aS'182'
p22
aS'182'
p23
aS'182'
p24
aS'182'
p25
aS'182'
p26
aS'182'
p27
aS'182'
p28
aS'182'
p29
aS'182'
p30
aS'182'
p31
aS'182'
p32
aS'182'
p33
aS'182'
p34
aS'182'
p35
aS'182'
p36
aS'182'
p37
aS'182'
p38
aS'182'
p39
aS'182'
p40
aS'182'
p41
aS'182'
p42
aS'182'
p43
aS'182'
p44
aS'182'
p45
aS'182'
p46
aS'182'
p47
aS'182'
p48
aS'182'
p49
aS'182'
p50
aS'182'
p51
aS'182'
p52
aS'182'
p53
aS'182'
p54
aS'182'
p55
aS'182'
p56
aS'182'
p57
aS'182'
p58
aS'182'
p59
aS'182'
p60
aS'182'
p61
aS'182'
p62
aS'182'
p63
aS'182'
p64
aS'182'
p65
aS'182'
p66
aS'182'
p67
aS'182'
p68
aS'182'
p69
aS'182'
p70
aS'182'
p71
aS'182'
p72
aS'182'
p73
aS'182'
p74
aS'182'
p75
aS'182'
p76
aS'182'
p77
aS'182'
p78
aS'182'
p79
aS'182'
p80
aS'182'
p81
aS'182'
p82
aS'183'
p83
aS'183'
p84
aS'183'
p85
aS'183'
p86
aS'183'
p87
aS'183'
p88
aS'183'
p89
aS'183'
p90
aS'183'
p91
aS'183'
p92
aS'183'
p93
aS'183'
p94
aS'183'
p95
aS'183'
p96
aS'183'
p97
aS'183'
p98
aS'183'
p99
aS'183'
p100
aS'183'
p101
aS'183'
p102
aS'183'
p103
aS'183'
p104
aS'183'
p105
aS'183'
p106
aS'183'
p107
aS'183'
p108
aS'183'
p109
aS'183'
p110
aS'183'
p111
aS'183'
p112
aS'183'
p113
aS'183'
p114
aS'183'
p115
aS'183'
p116
aS'183'
p117
aS'183'
p118
aS'183'
p119
aS'183'
p120
aS'183'
p121
aS'183'
p122
aS'183'
p123
aS'183'
p124
aS'183'
p125
aS'183'
p126
aS'183'
p127
aS'183'
p128
aS'183'
p129
aS'183'
p130
aS'183'
p131
aS'183'
p132
aS'183'
p133
aS'183'
p134
aS'183'
p135
aS'183'
p136
aS'183'
p137
aS'183'
p138
aS'183'
p139
aS'183'
p140
aS'183'
p141
aS'183'
p142
aS'183'
p143
aS'183'
p144
aS'183'
p145
aS'183'
p146
aS'183'
p147
aS'183'
p148
aS'183'
p149
aS'183'
p150
aS'183'
p151
aS'183'
p152
aS'183'
p153
aS'183'
p154
aS'183'
p155
aS'183'
p156
aS'183'
p157
aS'183'
p158
aS'183'
p159
aS'183'
p160
aS'183'
p161
aS'183'
p162
aS'183'
p163
aS'183'
p164
aS'183'
p165
aS'183'
p166
aS'183'
p167
aS'183'
p168
aS'183'
p169
aS'183'
p170
aS'183'
p171
aS'183'
p172
aS'183'
p173
aS'183'
p174
aS'183'
p175
aS'183'
p176
aS'183'
p177
aS'183'
p178
aS'183'
p179
aS'183'
p180
aS'183'
p181
aS'183'
p182
aS'183'
p183
aS'183'
p184
aS'183'
p185
aS'183'
p186
aS'183'
p187
aS'183'
p188
aS'183'
p189
aS'183'
p190
aS'183'
p191
aS'183'
p192
aS'183'
p193
aS'183'
p194
aS'183'
p195
aS'183'
p196
aS'183'
p197
aS'183'
p198
aS'183'
p199
aS'183'
p200
aS'183'
p201
aS'183'
p202
aS'183'
p203
aS'183'
p204
aS'183'
p205
aS'183'
p206
aS'183'
p207
aS'184'
p208
aS'184'
p209
aS'184'
p210
aS'184'
p211
aS'184'
p212
aS'184'
p213
aS'184'
p214
aS'184'
p215
aS'184'
p216
aS'184'
p217
aS'184'
p218
aS'184'
p219
aS'184'
p220
aS'184'
p221
aS'184'
p222
aS'184'
p223
aS'184'
p224
aS'184'
p225
aS'184'
p226
aS'184'
p227
aS'184'
p228
aS'184'
p229
aS'184'
p230
aS'184'
p231
aS'184'
p232
aS'184'
p233
aS'184'
p234
aS'184'
p235
aS'184'
p236
aS'184'
p237
aS'184'
p238
aS'184'
p239
aS'184'
p240
aS'184'
p241
aS'184'
p242
aS'184'
p243
aS'184'
p244
aS'184'
p245
aS'184'
p246
aS'184'
p247
aS'184'
p248
aS'184'
p249
aS'184'
p250
aS'184'
p251
aS'184'
p252
aS'184'
p253
aS'184'
p254
aS'184'
p255
aS'184'
p256
aS'184'
p257
aS'184'
p258
aS'184'
p259
aS'184'
p260
aS'184'
p261
aS'184'
p262
aS'184'
p263
aS'184'
p264
aS'184'
p265
aS'184'
p266
aS'184'
p267
aS'184'
p268
aS'184'
p269
aS'184'
p270
aS'184'
p271
aS'184'
p272
aS'184'
p273
aS'184'
p274
aS'184'
p275
aS'185'
p276
aS'185'
p277
aS'185'
p278
aS'185'
p279
aS'185'
p280
aS'185'
p281
aS'185'
p282
aS'185'
p283
aS'185'
p284
aS'185'
p285
aS'185'
p286
aS'185'
p287
aS'185'
p288
aS'185'
p289
aS'185'
p290
aS'185'
p291
aS'185'
p292
aS'185'
p293
aS'185'
p294
aS'185'
p295
aS'185'
p296
aS'185'
p297
aS'185'
p298
aS'185'
p299
aS'185'
p300
aS'185'
p301
aS'185'
p302
aS'185'
p303
aS'185'
p304
aS'185'
p305
aS'185'
p306
aS'185'
p307
aS'185'
p308
aS'185'
p309
aS'185'
p310
aS'185'
p311
aS'185'
p312
aS'185'
p313
aS'185'
p314
aS'185'
p315
aS'185'
p316
aS'185'
p317
aS'185'
p318
aS'185'
p319
aS'185'
p320
aS'185'
p321
aS'185'
p322
aS'185'
p323
aS'185'
p324
aS'185'
p325
aS'185'
p326
aS'185'
p327
aS'185'
p328
aS'185'
p329
aS'185'
p330
aS'185'
p331
aS'185'
p332
aS'185'
p333
aS'185'
p334
aS'185'
p335
aS'185'
p336
aS'185'
p337
aS'185'
p338
aS'185'
p339
aS'185'
p340
aS'185'
p341
aS'185'
p342
aS'185'
p343
aS'185'
p344
aS'185'
p345
aS'185'
p346
aS'185'
p347
aS'185'
p348
aS'185'
p349
aS'185'
p350
aS'185'
p351
aS'185'
p352
aS'185'
p353
aS'185'
p354
aS'185'
p355
aS'185'
p356
aS'185'
p357
aS'185'
p358
aS'185'
p359
aS'185'
p360
aS'185'
p361
aS'185'
p362
aS'185'
p363
aS'185'
p364
aS'185'
p365
aS'185'
p366
aS'185'
p367
aS'185'
p368
aS'185'
p369
aS'185'
p370
aS'185'
p371
aS'185'
p372
aS'185'
p373
aS'185'
p374
aS'185'
p375
aS'185'
p376
aS'185'
p377
aS'185'
p378
aS'185'
p379
aS'185'
p380
aS'185'
p381
aS'185'
p382
aS'185'
p383
aS'185'
p384
aS'185'
p385
aS'185'
p386
aS'185'
p387
aS'185'
p388
aS'185'
p389
aS'185'
p390
aS'185'
p391
aS'185'
p392
aS'185'
p393
aS'185'
p394
aS'185'
p395
aS'185'
p396
aS'185'
p397
aS'185'
p398
aS'186'
p399
aS'186'
p400
aS'186'
p401
aS'186'
p402
aS'186'
p403
aS'186'
p404
aS'186'
p405
aS'186'
p406
aS'186'
p407
aS'186'
p408
aS'186'
p409
aS'186'
p410
aS'186'
p411
aS'186'
p412
aS'186'
p413
aS'186'
p414
aS'186'
p415
aS'186'
p416
aS'186'
p417
aS'186'
p418
aS'186'
p419
aS'186'
p420
aS'186'
p421
aS'186'
p422
aS'186'
p423
aS'186'
p424
aS'186'
p425
aS'186'
p426
aS'186'
p427
aS'186'
p428
aS'186'
p429
aS'186'
p430
aS'186'
p431
aS'186'
p432
aS'186'
p433
aS'186'
p434
aS'186'
p435
aS'186'
p436
aS'186'
p437
aS'186'
p438
aS'186'
p439
aS'186'
p440
aS'186'
p441
aS'186'
p442
aS'186'
p443
aS'186'
p444
aS'186'
p445
aS'186'
p446
aS'186'
p447
aS'186'
p448
aS'186'
p449
aS'186'
p450
aS'186'
p451
aS'186'
p452
aS'186'
p453
aS'186'
p454
aS'186'
p455
aS'187'
p456
aS'187'
p457
aS'187'
p458
aS'187'
p459
aS'187'
p460
aS'187'
p461
aS'187'
p462
aS'187'
p463
aS'187'
p464
aS'187'
p465
aS'187'
p466
aS'187'
p467
aS'187'
p468
aS'187'
p469
aS'187'
p470
aS'187'
p471
aS'187'
p472
aS'187'
p473
aS'187'
p474
aS'187'
p475
aS'187'
p476
aS'187'
p477
aS'187'
p478
aS'187'
p479
aS'187'
p480
aS'187'
p481
aS'187'
p482
aS'187'
p483
aS'187'
p484
aS'187'
p485
aS'187'
p486
aS'187'
p487
aS'187'
p488
aS'187'
p489
aS'187'
p490
aS'187'
p491
aS'187'
p492
aS'187'
p493
aS'187'
p494
aS'187'
p495
aS'187'
p496
aS'187'
p497
aS'187'
p498
aS'187'
p499
aS'187'
p500
aS'187'
p501
aS'187'
p502
aS'187'
p503
aS'187'
p504
aS'187'
p505
aS'187'
p506
aS'187'
p507
aS'187'
p508
aS'187'
p509
aS'187'
p510
aS'187'
p511
aS'187'
p512
aS'187'
p513
aS'187'
p514
aS'187'
p515
aS'187'
p516
aS'187'
p517
aS'187'
p518
aS'187'
p519
aS'187'
p520
aS'187'
p521
aS'187'
p522
aS'187'
p523
aS'187'
p524
aS'187'
p525
aS'187'
p526
aS'187'
p527
aS'187'
p528
aS'187'
p529
aS'187'
p530
aS'187'
p531
aS'187'
p532
aS'187'
p533
aS'187'
p534
aS'187'
p535
aS'187'
p536
aS'187'
p537
aS'187'
p538
aS'187'
p539
aS'187'
p540
aS'187'
p541
aS'187'
p542
aS'187'
p543
aS'187'
p544
aS'187'
p545
aS'187'
p546
aS'187'
p547
aS'187'
p548
aS'187'
p549
aS'187'
p550
aS'187'
p551
aS'187'
p552
aS'187'
p553
aS'187'
p554
aS'188'
p555
aS'188'
p556
aS'188'
p557
aS'188'
p558
aS'188'
p559
aS'188'
p560
aS'188'
p561
aS'188'
p562
aS'188'
p563
aS'188'
p564
aS'188'
p565
aS'188'
p566
aS'188'
p567
aS'188'
p568
aS'188'
p569
aS'188'
p570
aS'188'
p571
aS'188'
p572
aS'188'
p573
aS'188'
p574
aS'188'
p575
aS'188'
p576
aS'188'
p577
aS'188'
p578
aS'188'
p579
aS'188'
p580
aS'188'
p581
aS'188'
p582
aS'188'
p583
aS'188'
p584
aS'188'
p585
aS'188'
p586
aS'188'
p587
aS'188'
p588
aS'188'
p589
aS'188'
p590
aS'188'
p591
aS'188'
p592
aS'188'
p593
aS'188'
p594
aS'188'
p595
aS'188'
p596
aS'188'
p597
aS'188'
p598
aS'188'
p599
aS'188'
p600
aS'188'
p601
aS'188'
p602
aS'188'
p603
aS'188'
p604
aS'188'
p605
aS'188'
p606
aS'188'
p607
aS'188'
p608
aS'188'
p609
aS'188'
p610
aS'188'
p611
aS'188'
p612
aS'188'
p613
aS'188'
p614
aS'188'
p615
aS'188'
p616
aS'188'
p617
aS'188'
p618
aS'188'
p619
aS'188'
p620
aS'188'
p621
aS'188'
p622
aS'188'
p623
aS'188'
p624
aS'188'
p625
aS'188'
p626
aS'188'
p627
aS'188'
p628
aS'188'
p629
aS'188'
p630
aS'188'
p631
aS'188'
p632
aS'188'
p633
aS'188'
p634
aS'188'
p635
aS'188'
p636
aS'188'
p637
aS'188'
p638
aS'188'
p639
aS'188'
p640
aS'188'
p641
aS'189'
p642
aS'189'
p643
aS'189'
p644
aS'189'
p645
aS'189'
p646
aS'189'
p647
aS'189'
p648
aS'189'
p649
aS'189'
p650
aS'189'
p651
aS'189'
p652
aS'189'
p653
aS'189'
p654
aS'189'
p655
aS'189'
p656
aS'189'
p657
aS'189'
p658
aS'189'
p659
aS'189'
p660
aS'189'
p661
aS'189'
p662
aS'189'
p663
aS'189'
p664
aS'189'
p665
aS'189'
p666
aS'189'
p667
aS'189'
p668
aS'189'
p669
aS'189'
p670
aS'189'
p671
aS'189'
p672
aS'189'
p673
aS'189'
p674
aS'189'
p675
aS'189'
p676
aS'189'
p677
aS'189'
p678
aS'189'
p679
aS'189'
p680
aS'189'
p681
aS'189'
p682
aS'189'
p683
aS'189'
p684
aS'189'
p685
aS'189'
p686
aS'189'
p687
aS'189'
p688
aS'189'
p689
aS'189'
p690
aS'189'
p691
aS'189'
p692
aS'189'
p693
aS'189'
p694
aS'189'
p695
aS'189'
p696
aS'189'
p697
aS'189'
p698
aS'189'
p699
aS'189'
p700
aS'189'
p701
aS'189'
p702
aS'189'
p703
aS'189'
p704
aS'189'
p705
aS'189'
p706
aS'189'
p707
aS'189'
p708
aS'189'
p709
aS'189'
p710
aS'189'
p711
aS'189'
p712
aS'189'
p713
aS'189'
p714
aS'189'
p715
aS'189'
p716
aS'189'
p717
aS'189'
p718
aS'189'
p719
aS'189'
p720
aS'189'
p721
aS'189'
p722
aS'189'
p723
aS'189'
p724
aS'189'
p725
aS'189'
p726
aS'189'
p727
aS'189'
p728
aS'189'
p729
aS'189'
p730
aS'189'
p731
aS'189'
p732
aS'189'
p733
aS'189'
p734
aS'189'
p735
aS'189'
p736
aS'189'
p737
aS'189'
p738
aS'189'
p739
aS'189'
p740
aS'190'
p741
aS'190'
p742
aS'190'
p743
aS'190'
p744
aS'190'
p745
aS'190'
p746
aS'190'
p747
aS'190'
p748
aS'190'
p749
aS'190'
p750
aS'190'
p751
aS'190'
p752
aS'190'
p753
aS'190'
p754
aS'190'
p755
aS'190'
p756
aS'190'
p757
aS'190'
p758
aS'190'
p759
aS'190'
p760
aS'190'
p761
aS'190'
p762
aS'190'
p763
aS'190'
p764
aS'190'
p765
aS'190'
p766
aS'190'
p767
aS'190'
p768
aS'190'
p769
aS'190'
p770
aS'190'
p771
aS'190'
p772
aS'190'
p773
aS'190'
p774
aS'190'
p775
aS'190'
p776
aS'190'
p777
aS'190'
p778
aS'190'
p779
aS'190'
p780
aS'190'
p781
aS'190'
p782
aS'190'
p783
aS'190'
p784
aS'190'
p785
aS'190'
p786
aS'190'
p787
aS'190'
p788
aS'190'
p789
aS'190'
p790
aS'190'
p791
aS'190'
p792
aS'190'
p793
aS'190'
p794
aS'191'
p795
aS'191'
p796
aS'191'
p797
aS'191'
p798
aS'191'
p799
aS'191'
p800
aS'191'
p801
aS'191'
p802
aS'191'
p803
aS'191'
p804
aS'191'
p805
aS'191'
p806
aS'191'
p807
aS'191'
p808
aS'191'
p809
aS'191'
p810
aS'191'
p811
aS'191'
p812
aS'191'
p813
aS'191'
p814
aS'191'
p815
aS'191'
p816
aS'191'
p817
aS'191'
p818
aS'191'
p819
aS'191'
p820
aS'191'
p821
aS'191'
p822
aS'191'
p823
aS'191'
p824
aS'191'
p825
aS'191'
p826
aS'191'
p827
aS'191'
p828
aS'191'
p829
aS'191'
p830
aS'191'
p831
aS'191'
p832
aS'191'
p833
aS'191'
p834
aS'191'
p835
aS'191'
p836
aS'191'
p837
aS'191'
p838
aS'191'
p839
aS'191'
p840
aS'191'
p841
aS'191'
p842
aS'191'
p843
aS'191'
p844
aS'191'
p845
aS'191'
p846
aS'191'
p847
aS'191'
p848
aS'191'
p849
aS'191'
p850
aS'191'
p851
aS'191'
p852
aS'191'
p853
aS'191'
p854
aS'191'
p855
aS'191'
p856
aS'191'
p857
aS'191'
p858
aS'191'
p859
aS'191'
p860
aS'191'
p861
aS'191'
p862
aS'191'
p863
aS'191'
p864
aS'191'
p865
aS'191'
p866
aS'191'
p867
aS'191'
p868
aS'191'
p869
aS'191'
p870
aS'191'
p871
aS'191'
p872
aS'191'
p873
aS'191'
p874
aS'191'
p875
aS'191'
p876
aS'191'
p877
aS'191'
p878
aS'191'
p879
aS'191'
p880
aS'191'
p881
aS'191'
p882
aS'191'
p883
aS'191'
p884
aS'191'
p885
aS'191'
p886
aS'191'
p887
aS'191'
p888
aS'191'
p889
aS'191'
p890
aS'191'
p891
aS'191'
p892
aS'191'
p893
aS'192'
p894
aS'192'
p895
aS'192'
p896
aS'192'
p897
aS'192'
p898
aS'192'
p899
aS'192'
p900
aS'192'
p901
aS'192'
p902
aS'192'
p903
aS'192'
p904
aS'192'
p905
aS'192'
p906
aS'192'
p907
aS'192'
p908
aS'192'
p909
aS'192'
p910
aS'192'
p911
aS'192'
p912
aS'192'
p913
aS'192'
p914
aS'192'
p915
aS'192'
p916
aS'192'
p917
aS'192'
p918
aS'192'
p919
aS'192'
p920
aS'192'
p921
aS'192'
p922
aS'192'
p923
aS'192'
p924
aS'192'
p925
aS'192'
p926
aS'192'
p927
aS'192'
p928
aS'192'
p929
aS'192'
p930
aS'192'
p931
aS'192'
p932
aS'192'
p933
aS'192'
p934
aS'192'
p935
aS'192'
p936
aS'192'
p937
aS'192'
p938
aS'192'
p939
aS'192'
p940
aS'192'
p941
aS'192'
p942
aS'192'
p943
aS'192'
p944
aS'192'
p945
aS'192'
p946
aS'192'
p947
aS'192'
p948
aS'192'
p949
aS'192'
p950
aS'192'
p951
aS'192'
p952
aS'192'
p953
aS'192'
p954
aS'192'
p955
aS'192'
p956
aS'192'
p957
aS'192'
p958
aS'192'
p959
aS'192'
p960
aS'192'
p961
aS'192'
p962
aS'192'
p963
aS'192'
p964
aS'192'
p965
aS'192'
p966
aS'192'
p967
aS'192'
p968
aS'192'
p969
aS'192'
p970
aS'192'
p971
aS'192'
p972
aS'192'
p973
aa(lp974
S'1'
p975
aS'2'
p976
aS'3'
p977
aS'4'
p978
aS'5'
p979
aS'6'
p980
aS'7'
p981
aS'8'
p982
aS'9'
p983
aS'10'
p984
aS'11'
p985
aS'12'
p986
aS'13'
p987
aS'14'
p988
aS'15'
p989
aS'16'
p990
aS'17'
p991
aS'18'
p992
aS'19'
p993
aS'20'
p994
aS'21'
p995
aS'22'
p996
aS'23'
p997
aS'24'
p998
aS'25'
p999
aS'26'
p1000
aS'27'
p1001
aS'28'
p1002
aS'29'
p1003
aS'30'
p1004
aS'31'
p1005
aS'32'
p1006
aS'33'
p1007
aS'34'
p1008
aS'35'
p1009
aS'36'
p1010
aS'37'
p1011
aS'38'
p1012
aS'39'
p1013
aS'40'
p1014
aS'41'
p1015
aS'42'
p1016
aS'43'
p1017
aS'44'
p1018
aS'45'
p1019
aS'46'
p1020
aS'47'
p1021
aS'48'
p1022
aS'49'
p1023
aS'50'
p1024
aS'51'
p1025
aS'52'
p1026
aS'53'
p1027
aS'54'
p1028
aS'55'
p1029
aS'56'
p1030
aS'57'
p1031
aS'58'
p1032
aS'59'
p1033
aS'60'
p1034
aS'61'
p1035
aS'62'
p1036
aS'63'
p1037
aS'64'
p1038
aS'65'
p1039
aS'66'
p1040
aS'67'
p1041
aS'68'
p1042
aS'69'
p1043
aS'70'
p1044
aS'71'
p1045
aS'72'
p1046
aS'73'
p1047
aS'74'
p1048
aS'75'
p1049
aS'76'
p1050
aS'77'
p1051
aS'78'
p1052
aS'79'
p1053
aS'80'
p1054
aS'81'
p1055
ag975
ag976
ag977
ag978
ag979
ag980
ag981
ag982
ag983
aS'10'
p1056
aS'11'
p1057
aS'12'
p1058
aS'13'
p1059
aS'14'
p1060
aS'15'
p1061
aS'16'
p1062
aS'17'
p1063
aS'18'
p1064
aS'19'
p1065
aS'20'
p1066
aS'21'
p1067
aS'22'
p1068
aS'23'
p1069
aS'24'
p1070
aS'25'
p1071
aS'26'
p1072
aS'27'
p1073
aS'28'
p1074
aS'29'
p1075
aS'30'
p1076
aS'31'
p1077
aS'32'
p1078
aS'33'
p1079
aS'34'
p1080
aS'35'
p1081
aS'36'
p1082
aS'37'
p1083
aS'38'
p1084
aS'39'
p1085
aS'40'
p1086
aS'41'
p1087
aS'42'
p1088
aS'43'
p1089
aS'44'
p1090
aS'45'
p1091
aS'46'
p1092
aS'47'
p1093
aS'48'
p1094
aS'49'
p1095
aS'50'
p1096
aS'51'
p1097
aS'52'
p1098
aS'53'
p1099
aS'54'
p1100
aS'55'
p1101
aS'56'
p1102
aS'57'
p1103
aS'58'
p1104
aS'59'
p1105
aS'60'
p1106
aS'61'
p1107
aS'62'
p1108
aS'63'
p1109
aS'64'
p1110
aS'65'
p1111
aS'66'
p1112
aS'67'
p1113
aS'68'
p1114
aS'69'
p1115
aS'70'
p1116
aS'71'
p1117
aS'72'
p1118
aS'73'
p1119
aS'74'
p1120
aS'75'
p1121
aS'76'
p1122
aS'77'
p1123
aS'78'
p1124
aS'79'
p1125
aS'80'
p1126
aS'81'
p1127
aS'82'
p1128
aS'83'
p1129
aS'84'
p1130
aS'85'
p1131
aS'86'
p1132
aS'87'
p1133
aS'88'
p1134
aS'89'
p1135
aS'90'
p1136
aS'91'
p1137
aS'92'
p1138
aS'93'
p1139
aS'94'
p1140
aS'95'
p1141
aS'96'
p1142
aS'97'
p1143
aS'98'
p1144
aS'99'
p1145
aS'100'
p1146
aS'101'
p1147
aS'102'
p1148
aS'103'
p1149
aS'104'
p1150
aS'105'
p1151
aS'106'
p1152
aS'107'
p1153
aS'108'
p1154
aS'109'
p1155
aS'110'
p1156
aS'111'
p1157
aS'112'
p1158
aS'113'
p1159
aS'114'
p1160
aS'115'
p1161
aS'116'
p1162
aS'117'
p1163
aS'118'
p1164
aS'119'
p1165
aS'120'
p1166
aS'121'
p1167
aS'122'
p1168
aS'123'
p1169
aS'124'
p1170
aS'125'
p1171
ag975
ag976
ag977
ag978
ag979
ag980
ag981
ag982
ag983
aS'10'
p1172
aS'11'
p1173
aS'12'
p1174
aS'13'
p1175
aS'14'
p1176
aS'15'
p1177
aS'16'
p1178
aS'17'
p1179
aS'18'
p1180
aS'19'
p1181
aS'20'
p1182
aS'21'
p1183
aS'22'
p1184
aS'23'
p1185
aS'24'
p1186
aS'25'
p1187
aS'26'
p1188
aS'27'
p1189
aS'28'
p1190
aS'29'
p1191
aS'30'
p1192
aS'31'
p1193
aS'32'
p1194
aS'33'
p1195
aS'34'
p1196
aS'35'
p1197
aS'36'
p1198
aS'37'
p1199
aS'38'
p1200
aS'39'
p1201
aS'40'
p1202
aS'41'
p1203
aS'42'
p1204
aS'43'
p1205
aS'44'
p1206
aS'45'
p1207
aS'46'
p1208
aS'47'
p1209
aS'48'
p1210
aS'49'
p1211
aS'50'
p1212
aS'51'
p1213
aS'52'
p1214
aS'53'
p1215
aS'54'
p1216
aS'55'
p1217
aS'56'
p1218
aS'57'
p1219
aS'58'
p1220
aS'59'
p1221
aS'60'
p1222
aS'61'
p1223
aS'62'
p1224
aS'63'
p1225
aS'64'
p1226
aS'65'
p1227
aS'66'
p1228
aS'67'
p1229
aS'68'
p1230
ag975
ag976
ag977
ag978
ag979
ag980
ag981
ag982
ag983
aS'10'
p1231
aS'11'
p1232
aS'12'
p1233
aS'13'
p1234
aS'14'
p1235
aS'15'
p1236
aS'16'
p1237
aS'17'
p1238
aS'18'
p1239
aS'19'
p1240
aS'20'
p1241
aS'21'
p1242
aS'22'
p1243
aS'23'
p1244
aS'24'
p1245
aS'25'
p1246
aS'26'
p1247
aS'27'
p1248
aS'28'
p1249
aS'29'
p1250
aS'30'
p1251
aS'31'
p1252
aS'32'
p1253
aS'33'
p1254
aS'34'
p1255
aS'35'
p1256
aS'36'
p1257
aS'37'
p1258
aS'38'
p1259
aS'39'
p1260
aS'40'
p1261
aS'41'
p1262
aS'42'
p1263
aS'43'
p1264
aS'44'
p1265
aS'45'
p1266
aS'46'
p1267
aS'47'
p1268
aS'48'
p1269
aS'49'
p1270
aS'50'
p1271
aS'51'
p1272
aS'52'
p1273
aS'53'
p1274
aS'54'
p1275
aS'55'
p1276
aS'56'
p1277
aS'57'
p1278
aS'58'
p1279
aS'59'
p1280
aS'60'
p1281
aS'61'
p1282
aS'62'
p1283
aS'63'
p1284
aS'64'
p1285
aS'65'
p1286
aS'66'
p1287
aS'67'
p1288
aS'68'
p1289
aS'69'
p1290
aS'70'
p1291
aS'71'
p1292
aS'72'
p1293
aS'73'
p1294
aS'74'
p1295
aS'75'
p1296
aS'76'
p1297
aS'77'
p1298
aS'78'
p1299
aS'79'
p1300
aS'80'
p1301
aS'81'
p1302
aS'82'
p1303
aS'83'
p1304
aS'84'
p1305
aS'85'
p1306
aS'86'
p1307
aS'87'
p1308
aS'88'
p1309
aS'89'
p1310
aS'90'
p1311
aS'91'
p1312
aS'92'
p1313
aS'93'
p1314
aS'94'
p1315
aS'95'
p1316
aS'96'
p1317
aS'97'
p1318
aS'98'
p1319
aS'99'
p1320
aS'100'
p1321
aS'101'
p1322
aS'102'
p1323
aS'103'
p1324
aS'104'
p1325
aS'105'
p1326
aS'106'
p1327
aS'107'
p1328
aS'108'
p1329
aS'109'
p1330
aS'110'
p1331
aS'111'
p1332
aS'112'
p1333
aS'113'
p1334
aS'114'
p1335
aS'115'
p1336
aS'116'
p1337
aS'117'
p1338
aS'118'
p1339
aS'119'
p1340
aS'120'
p1341
aS'121'
p1342
aS'122'
p1343
aS'123'
p1344
ag975
ag976
ag977
ag978
ag979
ag980
ag981
ag982
ag983
aS'10'
p1345
aS'11'
p1346
aS'12'
p1347
aS'13'
p1348
aS'14'
p1349
aS'15'
p1350
aS'16'
p1351
aS'17'
p1352
aS'18'
p1353
aS'19'
p1354
aS'20'
p1355
aS'21'
p1356
aS'22'
p1357
aS'23'
p1358
aS'24'
p1359
aS'25'
p1360
aS'26'
p1361
aS'27'
p1362
aS'28'
p1363
aS'29'
p1364
aS'30'
p1365
aS'31'
p1366
aS'32'
p1367
aS'33'
p1368
aS'34'
p1369
aS'35'
p1370
aS'36'
p1371
aS'37'
p1372
aS'38'
p1373
aS'39'
p1374
aS'40'
p1375
aS'41'
p1376
aS'42'
p1377
aS'43'
p1378
aS'44'
p1379
aS'45'
p1380
aS'46'
p1381
aS'47'
p1382
aS'48'
p1383
aS'49'
p1384
aS'50'
p1385
aS'51'
p1386
aS'52'
p1387
aS'53'
p1388
aS'54'
p1389
aS'55'
p1390
aS'56'
p1391
aS'57'
p1392
ag975
ag976
ag977
ag978
ag979
ag980
ag981
ag982
ag983
aS'10'
p1393
aS'11'
p1394
aS'12'
p1395
aS'13'
p1396
aS'14'
p1397
aS'15'
p1398
aS'16'
p1399
aS'17'
p1400
aS'18'
p1401
aS'19'
p1402
aS'20'
p1403
aS'21'
p1404
aS'22'
p1405
aS'23'
p1406
aS'24'
p1407
aS'25'
p1408
aS'26'
p1409
aS'27'
p1410
aS'28'
p1411
aS'29'
p1412
aS'30'
p1413
aS'31'
p1414
aS'32'
p1415
aS'33'
p1416
aS'34'
p1417
aS'35'
p1418
aS'36'
p1419
aS'37'
p1420
aS'38'
p1421
aS'39'
p1422
aS'40'
p1423
aS'41'
p1424
aS'42'
p1425
aS'43'
p1426
aS'44'
p1427
aS'45'
p1428
aS'46'
p1429
aS'47'
p1430
aS'48'
p1431
aS'49'
p1432
aS'50'
p1433
aS'51'
p1434
aS'52'
p1435
aS'53'
p1436
aS'54'
p1437
aS'55'
p1438
aS'56'
p1439
aS'57'
p1440
aS'58'
p1441
aS'59'
p1442
aS'60'
p1443
aS'61'
p1444
aS'62'
p1445
aS'63'
p1446
aS'64'
p1447
aS'65'
p1448
aS'66'
p1449
aS'67'
p1450
aS'68'
p1451
aS'69'
p1452
aS'70'
p1453
aS'71'
p1454
aS'72'
p1455
aS'73'
p1456
aS'74'
p1457
aS'75'
p1458
aS'76'
p1459
aS'77'
p1460
aS'78'
p1461
aS'79'
p1462
aS'80'
p1463
aS'81'
p1464
aS'82'
p1465
aS'83'
p1466
aS'84'
p1467
aS'85'
p1468
aS'86'
p1469
aS'87'
p1470
aS'88'
p1471
aS'89'
p1472
aS'90'
p1473
aS'91'
p1474
aS'92'
p1475
aS'93'
p1476
aS'94'
p1477
aS'95'
p1478
aS'96'
p1479
aS'97'
p1480
aS'98'
p1481
aS'99'
p1482
ag975
ag976
ag977
ag978
ag979
ag980
ag981
ag982
ag983
aS'10'
p1483
aS'11'
p1484
aS'12'
p1485
aS'13'
p1486
aS'14'
p1487
aS'15'
p1488
aS'16'
p1489
aS'17'
p1490
aS'18'
p1491
aS'19'
p1492
aS'20'
p1493
aS'21'
p1494
aS'22'
p1495
aS'23'
p1496
aS'24'
p1497
aS'25'
p1498
aS'26'
p1499
aS'27'
p1500
aS'28'
p1501
aS'29'
p1502
aS'30'
p1503
aS'31'
p1504
aS'32'
p1505
aS'33'
p1506
aS'34'
p1507
aS'35'
p1508
aS'36'
p1509
aS'37'
p1510
aS'38'
p1511
aS'39'
p1512
aS'40'
p1513
aS'41'
p1514
aS'42'
p1515
aS'43'
p1516
aS'44'
p1517
aS'45'
p1518
aS'46'
p1519
aS'47'
p1520
aS'48'
p1521
aS'49'
p1522
aS'50'
p1523
aS'51'
p1524
aS'52'
p1525
aS'53'
p1526
aS'54'
p1527
aS'55'
p1528
aS'56'
p1529
aS'57'
p1530
aS'58'
p1531
aS'59'
p1532
aS'60'
p1533
aS'61'
p1534
aS'62'
p1535
aS'63'
p1536
aS'64'
p1537
aS'65'
p1538
aS'66'
p1539
aS'67'
p1540
aS'68'
p1541
aS'69'
p1542
aS'70'
p1543
aS'71'
p1544
aS'72'
p1545
aS'73'
p1546
aS'74'
p1547
aS'75'
p1548
aS'76'
p1549
aS'77'
p1550
aS'78'
p1551
aS'79'
p1552
aS'80'
p1553
aS'81'
p1554
aS'82'
p1555
aS'83'
p1556
aS'84'
p1557
aS'85'
p1558
aS'86'
p1559
aS'87'
p1560
ag975
ag976
ag977
ag978
ag979
ag980
ag981
ag982
ag983
aS'10'
p1561
aS'11'
p1562
aS'12'
p1563
aS'13'
p1564
aS'14'
p1565
aS'15'
p1566
aS'16'
p1567
aS'17'
p1568
aS'18'
p1569
aS'19'
p1570
aS'20'
p1571
aS'21'
p1572
aS'22'
p1573
aS'23'
p1574
aS'24'
p1575
aS'25'
p1576
aS'26'
p1577
aS'27'
p1578
aS'28'
p1579
aS'29'
p1580
aS'30'
p1581
aS'31'
p1582
aS'32'
p1583
aS'33'
p1584
aS'34'
p1585
aS'35'
p1586
aS'36'
p1587
aS'37'
p1588
aS'38'
p1589
aS'39'
p1590
aS'40'
p1591
aS'41'
p1592
aS'42'
p1593
aS'43'
p1594
aS'44'
p1595
aS'45'
p1596
aS'46'
p1597
aS'47'
p1598
aS'48'
p1599
aS'49'
p1600
aS'50'
p1601
aS'51'
p1602
aS'52'
p1603
aS'53'
p1604
aS'54'
p1605
aS'55'
p1606
aS'56'
p1607
aS'57'
p1608
aS'58'
p1609
aS'59'
p1610
aS'60'
p1611
aS'61'
p1612
aS'62'
p1613
aS'63'
p1614
aS'64'
p1615
aS'65'
p1616
aS'66'
p1617
aS'67'
p1618
aS'68'
p1619
aS'69'
p1620
aS'70'
p1621
aS'71'
p1622
aS'72'
p1623
aS'73'
p1624
aS'74'
p1625
aS'75'
p1626
aS'76'
p1627
aS'77'
p1628
aS'78'
p1629
aS'79'
p1630
aS'80'
p1631
aS'81'
p1632
aS'82'
p1633
aS'83'
p1634
aS'84'
p1635
aS'85'
p1636
aS'86'
p1637
aS'87'
p1638
aS'88'
p1639
aS'89'
p1640
aS'90'
p1641
aS'91'
p1642
aS'92'
p1643
aS'93'
p1644
aS'94'
p1645
aS'95'
p1646
aS'96'
p1647
aS'97'
p1648
aS'98'
p1649
aS'99'
p1650
ag975
ag976
ag977
ag978
ag979
ag980
ag981
ag982
ag983
aS'10'
p1651
aS'11'
p1652
aS'12'
p1653
aS'13'
p1654
aS'14'
p1655
aS'15'
p1656
aS'16'
p1657
aS'17'
p1658
aS'18'
p1659
aS'19'
p1660
aS'20'
p1661
aS'21'
p1662
aS'22'
p1663
aS'23'
p1664
aS'24'
p1665
aS'25'
p1666
aS'26'
p1667
aS'27'
p1668
aS'28'
p1669
aS'29'
p1670
aS'30'
p1671
aS'31'
p1672
aS'32'
p1673
aS'33'
p1674
aS'34'
p1675
aS'35'
p1676
aS'36'
p1677
aS'37'
p1678
aS'38'
p1679
aS'39'
p1680
aS'40'
p1681
aS'41'
p1682
aS'42'
p1683
aS'43'
p1684
aS'44'
p1685
aS'45'
p1686
aS'46'
p1687
aS'47'
p1688
aS'48'
p1689
aS'49'
p1690
aS'50'
p1691
aS'51'
p1692
aS'52'
p1693
aS'53'
p1694
aS'54'
p1695
ag975
ag976
ag977
ag978
ag979
ag980
ag981
ag982
ag983
aS'10'
p1696
aS'11'
p1697
aS'12'
p1698
aS'13'
p1699
aS'14'
p1700
aS'15'
p1701
aS'16'
p1702
aS'17'
p1703
aS'18'
p1704
aS'19'
p1705
aS'20'
p1706
aS'21'
p1707
aS'22'
p1708
aS'23'
p1709
aS'24'
p1710
aS'25'
p1711
aS'26'
p1712
aS'27'
p1713
aS'28'
p1714
aS'29'
p1715
aS'30'
p1716
aS'31'
p1717
aS'32'
p1718
aS'33'
p1719
aS'34'
p1720
aS'35'
p1721
aS'36'
p1722
aS'37'
p1723
aS'38'
p1724
aS'39'
p1725
aS'40'
p1726
aS'41'
p1727
aS'42'
p1728
aS'43'
p1729
aS'44'
p1730
aS'45'
p1731
aS'46'
p1732
aS'47'
p1733
aS'48'
p1734
aS'49'
p1735
aS'50'
p1736
aS'51'
p1737
aS'52'
p1738
aS'53'
p1739
aS'54'
p1740
aS'55'
p1741
aS'56'
p1742
aS'57'
p1743
aS'58'
p1744
aS'59'
p1745
aS'60'
p1746
aS'61'
p1747
aS'62'
p1748
aS'63'
p1749
aS'64'
p1750
aS'65'
p1751
aS'66'
p1752
aS'67'
p1753
aS'68'
p1754
aS'69'
p1755
aS'70'
p1756
aS'71'
p1757
aS'72'
p1758
aS'73'
p1759
aS'74'
p1760
aS'75'
p1761
aS'76'
p1762
aS'77'
p1763
aS'78'
p1764
aS'79'
p1765
aS'80'
p1766
aS'81'
p1767
aS'82'
p1768
aS'83'
p1769
aS'84'
p1770
aS'85'
p1771
aS'86'
p1772
aS'87'
p1773
aS'88'
p1774
aS'89'
p1775
aS'90'
p1776
aS'91'
p1777
aS'92'
p1778
aS'93'
p1779
aS'94'
p1780
aS'95'
p1781
aS'96'
p1782
aS'97'
p1783
aS'98'
p1784
aS'99'
p1785
ag975
ag976
ag977
ag978
ag979
ag980
ag981
ag982
ag983
aS'10'
p1786
aS'11'
p1787
aS'12'
p1788
aS'13'
p1789
aS'14'
p1790
aS'15'
p1791
aS'16'
p1792
aS'17'
p1793
aS'18'
p1794
aS'19'
p1795
aS'20'
p1796
aS'21'
p1797
aS'22'
p1798
aS'23'
p1799
aS'24'
p1800
aS'25'
p1801
aS'26'
p1802
aS'27'
p1803
aS'28'
p1804
aS'29'
p1805
aS'30'
p1806
aS'31'
p1807
aS'32'
p1808
aS'33'
p1809
aS'34'
p1810
aS'35'
p1811
aS'36'
p1812
aS'37'
p1813
aS'38'
p1814
aS'39'
p1815
aS'40'
p1816
aS'41'
p1817
aS'42'
p1818
aS'43'
p1819
aS'44'
p1820
aS'45'
p1821
aS'46'
p1822
aS'47'
p1823
aS'48'
p1824
aS'49'
p1825
aS'50'
p1826
aS'51'
p1827
aS'52'
p1828
aS'53'
p1829
aS'54'
p1830
aS'55'
p1831
aS'56'
p1832
aS'57'
p1833
aS'58'
p1834
aS'59'
p1835
aS'60'
p1836
aS'61'
p1837
aS'62'
p1838
aS'63'
p1839
aS'64'
p1840
aS'65'
p1841
aS'66'
p1842
aS'67'
p1843
aS'68'
p1844
aS'69'
p1845
aS'70'
p1846
aS'71'
p1847
aS'72'
p1848
aS'73'
p1849
aS'74'
p1850
aS'75'
p1851
aS'76'
p1852
aS'77'
p1853
aS'78'
p1854
aS'79'
p1855
aS'80'
p1856
aa(lp1857
S'Invited Talk'
p1858
aS'Planetary Nebula and Supernova Remnants'
p1859
aS'Databases and Software'
p1860
aS'AGNs'
p1861
aS'Cosmology and Gravitational Lenses'
p1862
aS'Normal Galaxies: Structure and Dynamics'
p1863
aS'X-Ray Binaries and Gamma-Ray Binaries'
p1864
aS'General ISM, Dust'
p1865
aS'WGAS'
p1866
aS'Teaching of Astronomy'
p1867
aS'Education'
p1868
aS'High Energy Observations of AGNs'
p1869
aS'Large Scale Structure'
p1870
aS'Education I'
p1871
aS'Solar and Solar-System Physics'
p1872
aS'WGAS I'
p1873
aS'Normal Galaxies'
p1874
aS'Invited Talk'
p1875
aS'Supernovae and SNRs'
p1876
aS'General ISM'
p1877
aS'Education II'
p1878
aS'Late-Type and Variable Stars'
p1879
aS'Emission-Line, Starburst and Ultra-Luminous Galaxies'
p1880
aS'Invited Talk'
p1881
aS'EUVE -- Astronomy I'
p1882
aS'Interferometry I'
p1883
aS'Hat Creek'
p1884
aS'HST Instruments and Techniques'
p1885
aS'Novae and Supernovae'
p1886
aS'Clusters of Galaxies'
p1887
aS'Star-Forming Galaxies'
p1888
aS'Local Group Galaxies'
p1889
aS'Gamma-Rays and Cosmic Rays'
p1890
aS'Airbourne Astronomy'
p1891
aS'Hat Creek'
p1892
aS'Particle Astrophysics'
p1893
aS'Interferometry'
p1894
aS'EUVE -- Astronomy II'
p1895
aS'Interferometry II'
p1896
aS'Particle Astrophysics'
p1897
aS'EUVE -- Astronomy'
p1898
aS'Invited Talk'
p1899
aS'Galactic Structure'
p1900
aS'Radio Galaxies, Jets and Disks'
p1901
aS'Early Type Stars'
p1902
aS'Late Type Stars'
p1903
aS'Degenerates'
p1904
aS'Solar and Solar-System Physics'
p1905
aS'Associations and Clusters'
p1906
aS'Globular Clusters'
p1907
aS'Instrumentation'
p1908
aS'NSF Astronomy'
p1909
aS'AGN and Radio Galaxies I'
p1910
aS'MW, Galactic Structure'
p1911
aS'SN 1993J; High Energy Astrophysics'
p1912
aS'Stellar Evolution and Clusters'
p1913
aS'Russell Lecture'
p1914
aS'Invited Talks'
p1915
aS'Invited Talk'
p1916
aS'HII Regions'
p1917
aS'Molecular Clouds, Star Formation'
p1918
aS'Very Young Stars'
p1919
aS'Intrinsic and Cataclysmic Variables'
p1920
aS'Pulsars'
p1921
aS'Women In Astronomy'
p1922
aS'HAD'
p1923
aS'Galaxy Clusters and the Extragalactic Distance Scale'
p1924
aS'Star Formation'
p1925
aS'Cataclysmic Variables and Pulsars'
p1926
aS'AGNs and Radio Galaxies II'
p1927
aS'Instruments and Techniques'
p1928
aS'HAD'
p1929
aS'Invited Talk'
p1930
aS'Gamma-Ray Bursts'
p1931
aS'Star Formation II'
p1932
aS'Keck'
p1933
aS'Cosmic Background Radiation'
p1934
aS'QSOs and Gravitational Lenses'
p1935
aS'HAD/Huntington I'
p1936
aS'HAD/Huntington II'
p1937
aS'HAD/Huntington III'
p1938
aS'Astronomy and the State'
p1939
aS'Invited Talk'
p1940
aS'Galaxy Surveys'
p1941
aS'Gamma Ray Astrophysics'
p1942
aS'ROSAT Observations of Clusters and Groups'
p1943
aS'Miscellaneous'
p1944
aS'Solar Activity'
p1945
aS'Solar Observations and Instrumentation'
p1946
aS'Solar System'
p1947
aS'South Polar and Lunar Telescopes'
p1948
aS'Gemini, Keck, Seeing'
p1949
aS'Absorption Lines in QSOs'
p1950
aS'HII Regions'
p1951
aS'Interstellar Dust and Extinction'
p1952
aS'Flare and Active Stars'
p1953
aS'Molecular Clouds'
p1954
aS'Stellar Spectroscopy and Photometry: Surveys and General results'
p1955
aS'Stellar Spectra: Individual Objects'
p1956
aS'Gas and Star Formation in Spiral Galaxies'
p1957
aS'Mergers, Masers and Megamasers'
p1958
aS'Diffuse Galactic Emission'
p1959
aS'ROSAT'
p1960
aS'Galaxies I'
p1961
aS'Star Clusters/General Relativity'
p1962
aS'Solar System and Heliosphere'
p1963
aS'Molecular Cloud Structure and Energetics'
p1964
aS'Celestial Visibility'
p1965
aS'Invited Talk'
p1966
aS'Gamma Ray Astrophysics'
p1967
aS'Seyfert Galaxies'
p1968
aS'Supernovae'
p1969
aS'Circumstellar Environments'
p1970
aS'Galaxies II'
p1971
aS'HAD'
p1972
aS'Invited Talk'
p1973
aS'Invited Talk'
p1974
aS'Pulsars'
p1975
aS'Supernovae'
p1976
aS'SN1993J, SN1978K and SN1987A'
p1977
aS'Young Stars and T Tauri Stars'
p1978
aS'Circumstellar Disks'
p1979
aS'Ellipticals'
p1980
aS'HII Regions and Star Formation in Spirals'
p1981
aS'Interstellar Medium'
p1982
aS'IUE Final Archive'
p1983
aS'Seyfert Galaxies and LINERS'
p1984
aS'Radio Telescopes, Miscellaneous'
p1985
aS'Software and Analytical Tools'
p1986
aS'Star Formation'
p1987
aS'White Dwarfs'
p1988
aS'Planetary Nebulae'
p1989
aS'Interacting Binaries: Accretion Phenomena'
p1990
aS'Cluster Cooling Flows and Abundances'
p1991
aS'Interacting Binaries: Hot Stars'
p1992
aS'Interacting Binaries: CVs and XRBs'
p1993
aS'Luminous AGNs'
p1994
aS'Galaxies III'
p1995
aS'Outflows and the Low Mass IMF'
p1996
aS'Solar Surface and Corona'
p1997
aS'Galactic Structure'
p1998
aS'Education/Curriculum'
p1999
aS'Public Policy Address'
p2000
aS'The Changing Climate for Federal Funding'
p2001
aS'AGN Surveys and High Energy Spectra'
p2002
aS'Interacting Binaries: Compact Stars'
p2003
aS'Spiral Galaxies'
p2004
aS'Cosmology and Distance Indicators'
p2005
aS'Solar Activity'
p2006
aS'Invited Talks'
p2007
aS'Invited Talk'
p2008
aS'Galaxy and CBR Distribution'
p2009
aS'High Z Line Measurements; Gravitational Microlensing: Distance Determination'
p2010
aS'Astrometric Instruments and Results'
p2011
aS'Globular Clusters'
p2012
aS'VLBI Obsesrvations'
p2013
aS'Spiral and Bar Structure in Galaxies'
p2014
aS'Starbursts'
p2015
aS'Galactic Structure and Star Counts'
p2016
aS'Structure of Galaxies'
p2017
aS'AGN and Jets'
p2018
aS'Stellar Winds and Outflows'
p2019
aS'Relativistic Astrophysics'
p2020
aS'Supernova Remnants'
p2021
aS'Variable Stars'
p2022
aS"Interacting Binaries: ``Normal'' Stars"
p2023
aS'Double Stars'
p2024
aS'Cluster Evolution'
p2025
aS'Teaching Astronomy'
p2026
aS'HEAD I - ASCA'
p2027
aS'Absorption in AGN Spectra'
p2028
aS'Radio Galaxies and Lyman Continuum Absorption'
p2029
aS'Dust and Gas in the ISM'
p2030
aS'Pulsars'
p2031
aS'Education/Demonstrations'
p2032
aS'Warner Prize Lecture'
p2033
aS'HEAD II - SN1993J'
p2034
aS'Astronomers Meet the Press'
p2035
aS'Galaxies and Cluster Environment'
p2036
aS'Molecular Clouds and Star Formation'
p2037
aS'AGN: Unified Picture'
p2038
aS'Evolved Stars, Supernova Remnants'
p2039
aS'Invited Talks'
p2040
aS'Pierce Prize Lecture'
p2041
aS'Radio Galaxies and AGN'
p2042
aS'Broad Absorption Line Quasars'
p2043
aS'AGN'
p2044
aS'BL Lacs and Blazars'
p2045
aS'Dwarf and Irregular Galaxies'
p2046
aS'Stellar Populations'
p2047
aS'Open Clusters'
p2048
aS'Stellar Interiors'
p2049
aS'Models and Synthetic Spectroscopy'
p2050
aS'HST, UIT and UV Instruments, UV Processing and Archives'
p2051
aS'Multi-Phase Interstellar Medium'
p2052
aS'Cosmology and Dark Matter'
p2053
aS'Galactic Center and Diffuse Galactic Emission'
p2054
aS'Astronomical Instruments and Techniques'
p2055
aS'WGAS'
p2056
aS'Starbursts and Seyfert 2s'
p2057
aS'Heineman Prize Lecture'
p2058
aS'Cosmology and CMB'
p2059
aS'AGN: Accretion Disks, Tori and Gas'
p2060
aS'Intrinsic Variables and Active Stars'
p2061
aS'Special Interest Session Sponsored by WGAS'
p2062
aS'Structure of Clusters of Galaxies'
p2063
aS'Brouwer Prize Lecture'
p2064
aS'Education'
p2065
aS'HST Performance and Process'
p2066
aS'Solar System'
p2067
aS'Chromospheres/Coronae/Active Binaries'
p2068
aS'Binary Stars'
p2069
aS'Stellar Abundances Across the H-R Diagram'
p2070
aS'Pulsars'
p2071
aS'Galactic X-Ray/Gamma-Ray Sources'
p2072
aS'Gamma Ray Sources'
p2073
aS'Luminous AGN and QSOs'
p2074
aS'Starburst Galaxies'
p2075
aS'Models or Gas Flows and Spectral Formation'
p2076
aS'Comets, Asteroids, Meteoroids'
p2077
aS'Gamma Ray Bursts'
p2078
aS'Molecular Clouds, Star Formation, Very Young Stars, T Tauri Stars'
p2079
aS'Radio Galaxies and High Luminosity AGNs'
p2080
aS'Astronomers Outside the University'
p2081
aS'Rossi Prize Lecture'
p2082
aS'Cosmic X-Ray and Microwave Background'
p2083
aS'Pulsars'
p2084
aS'Galaxy Structure and Kinematics'
p2085
aS'Starburst Activity in External Galaxies'
p2086
aS'Invited Talk'
p2087
aS'SIRTF'
p2088
aS'Detectors and Telescopes'
p2089
aS'Digitizing the Sky'
p2090
aS'Software and Catalogs'
p2091
aS'General Interstellar Medium'
p2092
aS'Star Formation, Molecular Clouds and HII Regions'
p2093
aS'Massive Hot Stars'
p2094
aS'Galaxy Dynamics'
p2095
aS'Relativistic Astrophysics'
p2096
aS'Massive Hot Stars with the Hubble Space Telescope Part I'
p2097
aS'Digitizing the Sky Part I'
p2098
aS'Galaxy Dynamics: Theory and Observation'
p2099
aS'Massive Hot Stars with the Hubble Space Telescope Part II'
p2100
aS'Digitizing the Sky Part II'
p2101
aS'Infrared Space Observatory'
p2102
aS'Computational Astrophysics I'
p2103
aS'Computational Astrophysics II'
p2104
aS'Astrometry'
p2105
aS'Searching for Brown Dwarfs'
p2106
aS'Young Stars, T Tauri Stars, Herbig Haro Objects'
p2107
aS'CVs/Symbiotic Stars'
p2108
aS'Novae'
p2109
aS'Nova Cygni 1992'
p2110
aS'Spiral, Dwarf and Irregular Galaxies'
p2111
aS'Elliptical Galaxies'
p2112
aS'Grand Challenges in Computational Astrophysics Part I'
p2113
aS'Brown Dwarfs and Very Low Mass Stars'
p2114
aS'Grand Challenges in Computational Astrophysics Part II'
p2115
aS'Recent Observational Results on Nova Cygni 1992'
p2116
aS'Invited Talk'
p2117
aS'Pulsating Variables/Stellar Models'
p2118
aS'Supernova Remnants Observation'
p2119
aS'Planetary Nebulae/Supernovae/Ejecta'
p2120
aS'The Galaxy'
p2121
aS'Low Luminosity AGNs and Active Galaxies'
p2122
aS'Intergalactic Medium'
p2123
aS'Properties and Evolution of Clusters of Galaxies'
p2124
aS'Large Scale Structures'
p2125
aS'Large Scale Structure and Cosmology'
p2126
aS'Low Luminosity AGNs and Active Galaxies'
p2127
aS'The Galaxy and Galactic ISM'
p2128
aS'Supernova Remnants'
p2129
aS'Compact Objects/Stellar Winds'
p2130
aS'Invited Talk'
p2131
aS'Southwestern Archaeoastronomy'
p2132
aS'History in Astronomy Education I'
p2133
aS'Invited Talk'
p2134
aS'Public Outreach'
p2135
aS'Education'
p2136
aS'Positional Astronomy'
p2137
aS'Radiative Transfer and Opacities'
p2138
aS'Radio Surveys and Techniques'
p2139
aS'HST Observing and Instruments'
p2140
aS'Remote Observing, Ground-Based Telescopes and, Space Instruments'
p2141
aS'Novae'
p2142
aS'Interstellar Medium'
p2143
aS'Integalactic Medium'
p2144
aS'Lyman Alpha Clouds'
p2145
aS'Gamma Ray Bursts'
p2146
aS'>100 GeV Gamma Ray Astronomy'
p2147
aS'MACHO Projects'
p2148
aS'AGN Spectroscopy'
p2149
aS'Multiwavelength AGN Studies'
p2150
aS'AGN Environments'
p2151
aS'Cataclysmic Variables, Dwarf Novae'
p2152
aS'Galactic Structure; Galactic Center'
p2153
aS'Gravitational Lensing'
p2154
aS'The Distance Scale'
p2155
aS'Ellipticals and Dark Matter'
p2156
aS'Interstellar Medium and Radiative Shocks'
p2157
aS'Spectroscopy of AGN I: Narrowlines'
p2158
aS'Mechanisms of Supernova Explosions'
p2159
aS'Education'
p2160
aS'History of Astronomy'
p2161
aS'Russell Prize Lecture'
p2162
aS'COBE'
p2163
aS'Supernovae'
p2164
aS'Spectroscopy of AGN II: Broad Lines and Spectral Evolution'
p2165
aS'Dwarf Galaxies'
p2166
aS'Giant and Supergiant Stars'
p2167
aS'History in Astronomy Education II'
p2168
aS'Invited Talks'
p2169
aS'Hale Prize Lecture'
p2170
aS'Numerical Techniques and Models'
p2171
aS'Catalogs, Computer Information, Services, Analysis and Tools'
p2172
aS'High-Spatial Resolution'
p2173
aS'SL-9, Comets, Solar System'
p2174
aS'Solar Observations and Theory'
p2175
aS'Stellar Activity I'
p2176
aS'White Dwarfs'
p2177
aS'Planetary Nebulae'
p2178
aS'Young Stars'
p2179
aS'Interstellar Dust and Polarization'
p2180
aS'Supernova Remnants'
p2181
aS'Dwarf Galaxies'
p2182
aS'Elliptical Galaxies'
p2183
aS'Clusters of Galaxies I'
p2184
aS'HST Medium Deep Survey'
p2185
aS'Early Universe'
p2186
aS'Large-Scale Structure'
p2187
aS'COBE and Related Papers'
p2188
aS'Distance Scale, Spiral Galaxies I'
p2189
aS'General Properties of AGN'
p2190
aS'Extremes in Astrophysics'
p2191
aS'Novae and Stellar Accretion'
p2192
aS'Supernova Remnants and Pulsars'
p2193
aS'WGAIT'
p2194
aS'Urey Prize Lecture'
p2195
aS'SL-9 Impact, PLanets'
p2196
aS'Galactic Center'
p2197
aS'Timing in X-Ray Astronomy</b>\n'
p2198
aS'Starbursts and Interacting Galaxies'
p2199
aS'Remote Observing'
p2200
aS'Active Galaxies and Intergalactic Medium'
p2201
aS'Pollution'
p2202
aS'Invited Talks: Impacts and Vulcanism'
p2203
aS'Warner Prize Lecture'
p2204
aS'Clusters of Galaxies II: X-Rays'
p2205
aS'Interacting Galaxies and Starbursts'
p2206
aS'Spirals I'
p2207
aS'Spirals II'
p2208
aS'Pulsars and Neutron Stars'
p2209
aS'Supernovae: Observations and Theory'
p2210
aS'Stellar Activity II: Early Type Stars, Normal Stars'
p2211
aS"YSO's, Masers and Molecules"
p2212
aS'HII Regions'
p2213
aS'Circumstellar Gas and Dust'
p2214
aS'Star Forming Clouds'
p2215
aS'Binaries'
p2216
aS'Solar Active Regions'
p2217
aS'HST'
p2218
aS'Mulit-Wavelength Observations of Blazars and BL Lacertae Objects'
p2219
aS'Clusters of Galaxies - Galaxy Evolution'
p2220
aS'Planetary Nebula and Degenerate Stars'
p2221
aS'Young Stars and Young Clusters'
p2222
aS'Solar Active Regions and Solar Wind'
p2223
aS'HST'
p2224
aS'Acceleration and Jets in AGN, High Redshift Quasars, Polarization'
p2225
aS'Substructures of Galaxy Clusters, Field Galaxies'
p2226
aS'YSOs and Masers'
p2227
aS'Milky Way'
p2228
aS'Activity and Abundances Near the Main Sequence'
p2229
aS'Invited Talks: Star Formation'
p2230
aS'Heineman Prize Lecture'
p2231
aS'Intrinsic Variables'
p2232
aS'X-Ray Variables, Binaries and Transients'
p2233
aS'Open and Globular Clusters'
p2234
aS'Globular Clusters'
p2235
aS'Barred Spirals'
p2236
aS'Galaxies: Photometry and Spectrophotometry'
p2237
aS'Galaxies: Morphology and Interactions'
p2238
aS'Seyfert Galaxies'
p2239
aS'Extragalactic Radio Sources, Jets'
p2240
aS'Blazars and BL Lacs'
p2241
aS'Gamma Ray Bursts'
p2242
aS'Microlensing and the Search for MACHOS'
p2243
aS'Early Universe and Cosmic Microwave Background'
p2244
aS'Compact Groups, Galaxy and Quasar Clustering'
p2245
aS'WGAS'
p2246
aS'Globular Clusters and Compact Objects'
p2247
aS'Invited Talk'
p2248
aS'Cosmic Microwave Background'
p2249
aS'Galaxies and Clusters of Galaxies, X-Ray Observations'
p2250
aS'Galactic Gamma Rays'
p2251
aS'Early Stars, X-Ray Binaries, Theory'
p2252
aS'Ultracompact HII Regions and Star Formation'
p2253
aS'Solar Magnetic Field and Solar Variabilty'
p2254
aS'Invited Talk'
p2255
aS'Software'
p2256
aS'Instrumentation and Techniques I: Ground Based'
p2257
aS'Instrumentation and Techniques II: Space Based'
p2258
aS'Gamma Ray Astronomy'
p2259
aS'Cepheid Variables and the Distance Scale'
p2260
aS'Clusters of Galaxies/Binary Galaxies'
p2261
aS'Surveys and Cosmology'
p2262
aS'Protostars, Young Stars and Stellar Accretion Disks'
p2263
aS'Variable Stars'
p2264
aS'AGNs I: Observations'
p2265
aS'Stars and Variable Stars'
p2266
aS'Solar System'
p2267
aS'The ApJ and the Rise of American Astrophysics'
p2268
aS'AGNs II: Models'
p2269
aS'Astro 2'
p2270
aS'Instrumentation, Techniques and Surveys'
p2271
aS'Rossi Prize Lecture'
p2272
aS'Invited Talk'
p2273
aS'Astro 2'
p2274
aS'Stellar Spectroscopy, Atmospheres, Models, Intrinsic Variables, Theory, Part I'
p2275
aS'Stellar Spectroscopy, Atmospheres, Models, Intrinsic Variables, Theory, Part II'
p2276
aS'Low-Luminosity AGNs'
p2277
aS'AGNs/QSOs - High Luminosity'
p2278
aS'QSO Absorption-Line Studies with HST and Keck'
p2279
aS'The Dynamics of Large Scale Structure'
p2280
aS'The Space VLBI Mission VSOP182'
p2281
aS'QSO Absorption-Line Studies with HST and Keck'
p2282
aS'The Dynamics of Large Scale Structure'
p2283
aS'First Results from Astro 2'
p2284
aS'Astronomical Education'
p2285
aS'Astrometry'
p2286
aS'Solar System'
p2287
aS'Atomic and Nuclear Astrophysics'
p2288
aS'ISM: Abundances and Dust'
p2289
aS'ISM: Structure, Molecular Clouds'
p2290
aS'Supernovae and Their Remnants'
p2291
aS'Planetary Nebulae and Novae'
p2292
aS'Spiral, Dwarf and Irregular Galaxies'
p2293
aS'Starburst Galaxies'
p2294
aS'The Status of Large Telescope Projects, Instrumentation and Plans for Large Science Programs in the Areas of Wide-Field Surveys'
p2295
aS'Metallicity in AGN and the Near-AGN Environment'
p2296
aS'Planetariums'
p2297
aS'The Status of Large Telescope Projects, Instrumentation and Plans for Large Science Projectects in the Areas of Wide-Field Surveys'
p2298
aS'Metallicity in AGN and the Near-AGN Environment'
p2299
aS'Invited Talk'
p2300
aS'Binary Stars'
p2301
aS'Degenerate Stars and Pulsars'
p2302
aS'Star Clusters in the Milky Way and Other Galaxies'
p2303
aS'The Milky Way'
p2304
aS'Galaxies'
p2305
aS'Gravitational Lenses/QSO Absorption Lines'
p2306
aS'Gamma Ray Bursts'
p2307
aS'Communicating Science to the Public'
p2308
aS'Heineman Prize Lecture'
p2309
aS'Large Scale Structure/Cosmology'
p2310
aS'Molecular Astrophysics/ISM'
p2311
aS'Applied History of Astronomy I'
p2312
aS'Applied History of Astronomy II'
p2313
aS'Invited Talks'
p2314
aS'Space Mission Status'
p2315
aS'Education'
p2316
aS'Teaching Astronomy'
p2317
aS'Cosmology and Cosmological Parameters'
p2318
aS'Distance Indicators'
p2319
aS'The Hubble Deep Field'
p2320
aS'Gamma-ray Bursts and Soft Gamma-ray Repeaters'
p2321
aS'LMC, Dwarf Galaxies'
p2322
aS'Radio Galaxies, VLBI'
p2323
aS'Observations of Radio Sources'
p2324
aS'Milky Way Galaxy'
p2325
aS'Interstellar Medium I'
p2326
aS'Radio Pulsars'
p2327
aS'Supernovae'
p2328
aS'White Dwarfs'
p2329
aS'Hot Stars'
p2330
aS'Molecular Clouds, Dense Cores, and Protostars'
p2331
aS'Jets, H-H Objects, and Molecular Outflows'
p2332
aS"YSOs' Variability"
p2333
aS'The Changing Shape of Graduate Education in Science'
p2334
aS'Seyfert & Starburst Galaxies; Winds, Outflows & Energetics'
p2335
aS'Stellar Winds, Accretion, & Molecular Clouds'
p2336
aS'X-ray Emission Flow, Neutron Stars & White Dwarfs'
p2337
aS'Astronomies and Cultures (HAD)'
p2338
aS'Working Group on Astronomical Imaging Technology'
p2339
aS'Invited Talk'
p2340
aS'Galaxy Evolution I'
p2341
aS'Black Holes'
p2342
aS'Stellar Astrophysics II'
p2343
aS'Neutron Stars & White Dwarfs'
p2344
aS'The Universe According to COBE'
p2345
aS'The Western Tradition (HAD)'
p2346
aS'Rossi Prize Lecture'
p2347
aS'Pierce Prize Lecture'
p2348
aS'Electronic Journals and Other AAS Web Services'
p2349
aS'Observing with HST'
p2350
aS'Adverse Environmental Impacts on Astronomy'
p2351
aS'SETI Results'
p2352
aS'Solar Systems'
p2353
aS'Binary Stars'
p2354
aS'Circumstellar Material'
p2355
aS'Interstellar Medium I'
p2356
aS'Gamma-ray Sources & Diffuse Emission'
p2357
aS'Microlensing'
p2358
aS'Spiral & Field Galaxies'
p2359
aS'Starburst Galaxies'
p2360
aS'Active Galaxies'
p2361
aS'Star Formation & Chemical Evolution of Galaxies'
p2362
aS'Simulations of Clusters of Galaxies'
p2363
aS'Surveys of Galaxies & Clusters'
p2364
aS'Large Scale Structure'
p2365
aS'Galactic Microquasars'
p2366
aS'Active Galaxies:  The Central Engine'
p2367
aS'Policy Making in Astronomy and its Impact on the Community'
p2368
aS'Gamma Rays & Cosmic Rays'
p2369
aS'Milky Way, Center & Halo'
p2370
aS'Stellar Astrophysics I'
p2371
aS'Russell Prize Lecture'
p2372
aS'X-ray Astronomy:  New Discoveries'
p2373
aS'Galaxy Evolution II'
p2374
aS'Getting & Holding a Job with an Astronomy Degree'
p2375
aS'ISM in Nearby Galaxies'
p2376
aS'Young Clusters, High-Mass YSOs and Their Environment'
p2377
aS'Cosmic Microwave Background'
p2378
aS'Invited Talks:  Observing Star Formation'
p2379
aS'Invited Talk'
p2380
aS'Searching for Other Planetary Systems'
p2381
aS'Space Astronomy in the Next Millennium'
p2382
aS'Proposed Space Missions'
p2383
aS'Instrumentation'
p2384
aS'Ground-Based Instruments'
p2385
aS'2MASS'
p2386
aS'Adaptive Optics'
p2387
aS'AXAF Calibration'
p2388
aS'Supernova Remnants'
p2389
aS'CVs and Novae'
p2390
aS'Central Stars of Planetary Nebulae'
p2391
aS'Planetary Nebulae'
p2392
aS'Globular Clusters'
p2393
aS'Elliptical Galaxies'
p2394
aS'QSOs and BL Lacs'
p2395
aS'Quasar Absorption Line Systems'
p2396
aS'Measurement of Cosmological Parameters'
p2397
aS'Environments of QSOs and Radio Galaxies'
p2398
aS'Structure and Kinematics of Galaxies'
p2399
aS'Searching for Other Planetary Systems'
p2400
aS'Supernovae, Supernovae Remnants and Planetary Nebulae'
p2401
aS'Working Group on Astronomical Software'
p2402
aS'Public Policy Talk'
p2403
aS'Space Astronomy in the Next Millennium'
p2404
aS'Large-Scale Structure: Observations and Theory'
p2405
aS'X-Ray Galaxies and Clusters'
p2406
aS'QSO Absorption Systems'
p2407
aS'Supernovae'
p2408
aS'Invited Talks:  Adaptive Optics'
p2409
aS'Invited Talk'
p2410
aS'Public Policy Talk'
p2411
aS'The Solar Photosphere and Magnetic Field'
p2412
aS'Clusters'
p2413
aS'Low Luminosity AGN and Starburst Galaxies'
p2414
aS'High Luminosity AGN'
p2415
aS'Evolution, Survey and Clusters of Galaxies'
p2416
aS'Gas and Dust in the ISM'
p2417
aS'Milky Way Structure'
p2418
aS'Dwarf Galaxies'
p2419
aS'Spiral Galaxies'
p2420
aS'Elliptical Galaxies'
p2421
aS'Cosmology, Large-Scale Structure and Distance Scales'
p2422
aS'Gravitational Effects'
p2423
aS'Gamma-Ray Bursts'
p2424
aS'Teaching of Astronomy'
p2425
aS'Low Luminosity AGN'
p2426
aS'Molecular Clouds and Star Formation'
p2427
aS'Stellar Winds and Rotation'
p2428
aS'Solar Flares'
p2429
aS'Research Experiences for Undergraduates'
p2430
aS'Galaxies and Clusters of Galaxies'
p2431
aS'Hale Prize Lecture'
p2432
aS'High Luminosity AGN and QSOs'
p2433
aS'General Interstellar Medium'
p2434
aS'Stellar Oscillations Project'
p2435
aS'Solar Flares II'
p2436
aS'History and Teaching of Astronomy'
p2437
aS'Stellar Evolution: Beyond the Main Sequence'
p2438
aS'Invited Talks'
p2439
aS'Radio Astronomy, Yesterday, Today and Tomorrow - I'
p2440
aS'The Diffuse Interstellar Medium, Progress and Puzzles - I'
p2441
aS"Curriculum in Crisis: Reinventing Stellar Astrophysics for Today's Graduate Student"
p2442
aS'Dynamics of Solar Magnetic Fields'
p2443
aS'Solar System'
p2444
aS'Solar Magnetic Fields'
p2445
aS'Solar Activity'
p2446
aS'First Results from the Solar and Heliospheric Observatory (SOHO)'
p2447
aS'Disks and Bipolar Outflows from Hot Stars'
p2448
aS"Curriculum in Crisis: Reinventing Stellar Astrophysics for Today's Graduate Student"
p2449
aS'The Environment of Stars: From Protostars to the Main Sequence'
p2450
aS'Jets and Outflows from YSOs'
p2451
aS'Molecular Clouds: Models and Observations'
p2452
aS'The Diffuse ISM: Milky Way and Beyond'
p2453
aS'The Local Diffuse ISM'
p2454
aS'Radio Astronomy, Yesterday, Today and Tomorrow'
p2455
aS'Radio Astronomy, Yesterday, Today and Tomorrow - II'
p2456
aS'The Diffuse Interstellar Medium, Progress and Puzzles - II'
p2457
aS'New Instrumentation for the Hubble Space Telescope and Plans for the 1997 Servicing Missions'
p2458
aS'First Results from the Solar and Heliospheric Observatory (SOHO)'
p2459
aS'Disks and Bipolar Outflows from Hot Stars - I'
p2460
aS'New Views of the Magellanic Clouds - I'
p2461
aS'First Results from the Infrared Space Observatory'
p2462
aS'First Results from the Global Oscillations Network Group (GONG)'
p2463
aS'Ground and Instrumentation Techniques and Catalogs'
p2464
aS'Space Instrumentation'
p2465
aS'New Solar Instrumentation'
p2466
aS'Astrophysical Diagnostics from Polarimetry'
p2467
aS'Stellar Modelling/Abundances'
p2468
aS'Pulsating/Variable Stars'
p2469
aS'Multiple Stars'
p2470
aS'New Views of the Magellanic Clouds'
p2471
aS'Comet Hyakutake Encounter'
p2472
aS'First Results from the Infrared Space Observatory'
p2473
aS'Disks and Bipolar Outflows from Hot Stars - II'
p2474
aS'New Views of the Magellanic Clouds - II'
p2475
aS'Astrophysical Diagnostics from Polarimetry'
p2476
aS'New Solar Instrumentation'
p2477
aS'Invited'
p2478
aS'The Solar Dynamo and Helioseismology'
p2479
aS'Solar Flares and Ejections'
p2480
aS'Stellar Activity/Starspots'
p2481
aS'Late Type Stars and Planetary Nebulae'
p2482
aS'White Dwarfs, Neutron Stars and Pulsars'
p2483
aS'Supernova Remnants'
p2484
aS'The Crab Nebula'
p2485
aS'Exploding Stars'
p2486
aS'Normal Galaxies'
p2487
aS'Unique Objects and Gamma Bursts'
p2488
aS'Quiet Solar Photosphere and Chromosphere'
p2489
aS'Solar Corona and Transition Region'
p2490
aS"IDEA's in Astronomy"
p2491
aS'Pierce Prize Lecture'
p2492
aS'Starbursts and Mergers'
p2493
aS'Neutron Stars and Their Friends'
p2494
aS'Instruments, Databases and Techniques'
p2495
aS'Coronal Activity'
p2496
aS'Star Parameters'
p2497
aS'HAD I: North of the Border:  The Development of Canadian Astronomy'
p2498
aS'Heineman Prize Lecture'
p2499
aS'SIRTF'
p2500
aS'The WWW and Astronomy Education'
p2501
aS'Education'
p2502
aS'An Integrated Web Resource'
p2503
aS'Catalogs & Surveys'
p2504
aS'The X-Ray Background'
p2505
aS'X-Ray Catalogs & Instrumentation'
p2506
aS'AGN - Host Galaxies & Environment'
p2507
aS'AGN'
p2508
aS'Distance Scale'
p2509
aS'Large Scale Structure & Cosmology'
p2510
aS'Surveys'
p2511
aS'Structure and Collapse of Molecular Clouds:  Theory'
p2512
aS"Interstellar Grains, PAH's and the Insterstellar Bands"
p2513
aS'The Galactic Interstellar Gas'
p2514
aS'The Sun'
p2515
aS'Solar & Planetary Systems'
p2516
aS'QSOs'
p2517
aS'Massive Star Formation & Ultracompact HII Regions'
p2518
aS'Disk Galaxies'
p2519
aS'Astronomy Education:  Current Developments & Trends'
p2520
aS'HAD II'
p2521
aS'Solar System'
p2522
aS'Russell Prize Lecture'
p2523
aS'Gravitational Lensing & Dark Matter'
p2524
aS'Diffuse Gamma-Ray Emission & Gamma-Ray Bursts'
p2525
aS'Dynamical Evolution of Galaxies'
p2526
aS'Teaching Astronomy with the WWW'
p2527
aS'Radiogalaxies - High Energy'
p2528
aS'Stars in Various Throes of Stellar Evolution'
p2529
aS'Probing the Early Universe with Keck and HST'
p2530
aS'Invited Talk'
p2531
aS'Galactic X-Ray (XTE) Sources'
p2532
aS'Extragalactic X-Ray Sources'
p2533
aS'Clusters of Galaxies - X-Rays'
p2534
aS'Dwarf Galaxies'
p2535
aS'AGN Surveys'
p2536
aS'Radiogalaxies & Jets'
p2537
aS'Elliptical Galaxies'
p2538
aS'Ground-Based Optical Telescopes & Instruments'
p2539
aS'HST Instruments & Other Missions'
p2540
aS'Stellar X-Ray Sources'
p2541
aS'Supernovae'
p2542
aS'Supernova Remnants'
p2543
aS'Novae'
p2544
aS'Circumstellar Envelopes'
p2545
aS'Young Stellar Objects'
p2546
aS'Molecular Outflows, Stellar Jets, and Herbig-Haro Objects'
p2547
aS'WIRE, MSX and the Cosmic Background'
p2548
aS'HEAD I:  First Results from RXTE'
p2549
aS'Circumstellar Disks & Outflows Associated with YSOs'
p2550
aS'Spiral Galaxy Kinematics'
p2551
aS'Supernova Remnants'
p2552
aS'The Sun'
p2553
aS'WGAIT'
p2554
aS'Rossi Prize Lecture'
p2555
aS'HEAD II: Cosmic Particle Accelerators'
p2556
aS'Next Generation Space Telescope'
p2557
aS'Formation and Structure of the Milky Way'
p2558
aS'Elliptical Galaxies:  Dynamics and the UV Upturn'
p2559
aS'Stars and A Radio Source'
p2560
aS'Globular Clusters'
p2561
aS'Stars and Their Progeny:  Outflows and Inflows'
p2562
aS'Invited Talk'
p2563
aS'ISM in Galaxies'
p2564
aS'Disk Galaxies'
p2565
aS'Starburst Galaxies'
p2566
aS'The Milky Way'
p2567
aS'Globular Clusters'
p2568
aS'Open Clusters'
p2569
aS'Gravitational Lensing'
p2570
aS'Pulsars'
p2571
aS'Infrared Instrumentation'
p2572
aS'Cataclysmic Variables and Accretion Disks'
p2573
aS'Binary Stars'
p2574
aS'Stars - Young and Old, Large and Small'
p2575
aS'White Dwarf Stars'
p2576
aS'Stellar Population in Cluster Galaxies'
p2577
aS'Variable Cool and Late Type Stars'
p2578
aS'Gravitational Lensing & Dark Matter'
p2579
aS'Galaxy Evolution/Interaction'
p2580
aS'Dwarf Galaxies'
p2581
aS'Cataclysmic Variables and Accretion Disks'
p2582
aS'Rotating, Modeling and Blue Stars'
p2583
aS'Public Policy'
p2584
aS'Cosmic Background Radiation Anisotropies Now and in the Future'
p2585
aS'Starburst Galaxies'
p2586
aS'OJ287 and X-Ray Emission from Elliptical Galaxies'
p2587
aS'Structure of Molecular Clouds'
p2588
aS'Pulsars'
p2589
aS'GRIS'
p2590
aS'New Dynamics and Views of the Solar System'
p2591
aS'Invited'
p2592
aS'Cepheids and Supergiant Variable Stars'
p2593
aS'Planetary Nebulae'
p2594
aS'AGN-Absorption/Emission'
p2595
aS'Blazars'
p2596
aS'Invited Talk'
p2597
aS'Spiral, Irregular and Elliptical Galaxies'
p2598
aS'Evolution of Galaxies & Clusters of Galaxies'
p2599
aS'The Sun'
p2600
aS'Solar System Objects'
p2601
aS'The ISM & Molecular Clouds'
p2602
aS'Planetary & Other Nebulae'
p2603
aS'Teaching Projects'
p2604
aS'Instruments, Techniques'
p2605
aS'Studies of Black Holes'
p2606
aS'Instrumentation & Techniques'
p2607
aS'Degenerate Stars & Supernovae'
p2608
aS'Galaxies & Globular Clusters'
p2609
aS'Education & Abstract Services'
p2610
aS'Russell Prize Lecture'
p2611
aS'Studies of Black Holes & Future Survey Missions'
p2612
aS'ISM, Star Formation & Planets'
p2613
aS'Outcome of the Examination of Graduate Education in Astronomy'
p2614
aS'Old Stellar Populations in the Milky Way'
p2615
aS'All Sky Imaging Surveys of Black Hole Candidates and AGN - I'
p2616
aS'Amateurs & Professionals:  Collaborators in the New Age of Electronic Astronomy - I'
p2617
aS'Binary Stars: New Generation Modeling Developments & Results'
p2618
aS'Degenerate Stars, Pulsars'
p2619
aS'Star Formation in the Galaxy & the LMC'
p2620
aS'Stars in the Ultraviolet'
p2621
aS'Stars in the Visible & IR'
p2622
aS'Variable Stars, Novae, & Supernovae'
p2623
aS'Double Stars'
p2624
aS'High Resolution X-ray Imaging & Spectroscopy with AXAF'
p2625
aS'Amateurs & Professionals:  Collaborators in the New Age of Electronic Astronomy'
p2626
aS'Binary Stars: New Generation Modeling Developments'
p2627
aS'All Sky Imaging Surveys of Black Hole Candidates & AGN - II'
p2628
aS'Amateurs & Professionals: Collaborators in the New Age of Electronic Astronomy - II'
p2629
aS'High Resolution X-ray Imaging & Spectroscopy with AXAF'
p2630
aS'Old Stellar Populations Beyond the Milky Way - I'
p2631
aS'New Insights on X-ray Binaries - I'
p2632
aS'New Light on Supernovae Remnants'
p2633
aS'Modeling & Numerical Methods'
p2634
aS'AGNs, QSOs, Active Galaxies'
p2635
aS'Starburst Galaxies'
p2636
aS'T Tauri Stars & Protostellar Regions'
p2637
aS'Orfeus & STIS'
p2638
aS'Source Surveys'
p2639
aS'New Light on Supernova Remnants'
p2640
aS'New Insights on X-ray Binaries'
p2641
aS'Old Stellar Populations Beyond The Milky Way'
p2642
aS'Old Stellar Populations Beyond The Milky Way - II'
p2643
aS'New Insights on X-ray Binaries - II'
p2644
aS'Galactic Radioactivity, 26A1 & Solar System Origin'
p2645
aS'Invited Talk'
p2646
aS'Active Galactic Nuclei & Quasars'
p2647
aS'Clusters & Cosmology'
p2648
aS'Gamma Ray Investigations'
p2649
aS'Highest Energy Cosmic Rays'
p2650
aS'HAD I: LeRoy E. Doggett Memorial Session'
p2651
aS'Heineman Prize Lecture'
p2652
aS'Source Surveys, Galaxy Surveys, Distance Scale I'
p2653
aS'Education: Telescopes, the Web and Curricula'
p2654
aS'Accretion and Outflows in YSOs'
p2655
aS'HII Regions & Massive Star Formation'
p2656
aS'Molecular Clouds'
p2657
aS'Relativistic Astrophysics'
p2658
aS'SOFIA and IR Instrumentation'
p2659
aS'NICMOS'
p2660
aS'VLBI & Radio Instrumentation'
p2661
aS'Stellar Evolution - Theory'
p2662
aS'Stellar Spectra'
p2663
aS'Various Stellar Surveys'
p2664
aS'Planetary Nebulae and White Dwarfs'
p2665
aS'Astrometry'
p2666
aS'Data Archives & Tools'
p2667
aS'STIS'
p2668
aS'Source Surveys, Galaxy Surveys, Distance Scale II'
p2669
aS'Chemistry & Physical Process in the ISM'
p2670
aS'Luminous Infrared Galaxies'
p2671
aS'Radio - Loud AGN & Extragalactic Jets'
p2672
aS'Science with the Space Interferometry Mission'
p2673
aS'Disks, Bars & Halos'
p2674
aS'Seyfert Galaxies'
p2675
aS'Neutrinos & Stellar Abundances'
p2676
aS'Planets'
p2677
aS'HAD II: Modern Astronomical History'
p2678
aS'Public Policy: D. Goldin'
p2679
aS'Space Astronomy in the Next Millennium'
p2680
aS'Quasars'
p2681
aS'General ISM'
p2682
aS'Comets & Asteroids'
p2683
aS'New Results on the Nature of Eta Carinae'
p2684
aS'HAD III: From Hamlet to Crop Circles'
p2685
aS'Gamma Ray Bursts: Observations & Theory'
p2686
aS'Rossi Prize Lecture'
p2687
aS'HAD IV: Demographics, Alignments & Outreach'
p2688
aS'Supernovae'
p2689
aS'Supernova Remnants & SN 1987A'
p2690
aS'Visible & UV Telescopes'
p2691
aS'SIRTF'
p2692
aS'Variable Stars'
p2693
aS'Double Stars'
p2694
aS'Eclipsing Binaries'
p2695
aS'Variable Stars - Late Type'
p2696
aS'Circumstellar Disks & Shells'
p2697
aS'Gamma Rays & X-ray Instrumentation'
p2698
aS'Elliptical Galaxies & Bulges'
p2699
aS'Interstellar Medium I'
p2700
aS'Interstellar Medium II'
p2701
aS'AXAF, X-ray, Gamma Ray Instruments'
p2702
aS'The X Clusters: Cooling Flows'
p2703
aS'Next Generation Space Telescope'
p2704
aS'Gamma Ray Burst Breakthrough'
p2705
aS'BL Lacs & Blazars'
p2706
aS'Instrumentation & Information Science'
p2707
aS'Masters Programs: Ones that Work & Plans for the Future'
p2708
aS'Relativistic Astrophysics'
p2709
aS'Public Policy: A. Gore'
p2710
aS'Public Policy Panel'
p2711
aS'Dark Matter in Large Scale Structures'
p2712
aS'Surveys of Galaxies'
p2713
aS'Telescopes for the Next Millennium'
p2714
aS'What are AAS Members Doing in Education?'
p2715
aS'Radio - Loud AGN & Extragalactic Jets'
p2716
aS'Hubble Space Telescope: From the Interstellar Medium to Massive Black Holes'
p2717
aS'Invited Talk'
p2718
aS'Instabilities in Planetary Systems'
p2719
aS'Planetary Systems Near & Far'
p2720
aS'Comets & Asteroids'
p2721
aS'Comet Hale-Bopp'
p2722
aS'Solar Space Observations, SOHO & SERTS'
p2723
aS'The Quiet & Active Sun'
p2724
aS'Dust & PAHs in Galaxies'
p2725
aS'Star Formation in Galaxies'
p2726
aS'Structures of Galaxies'
p2727
aS'Seyfert Galaxies'
p2728
aS'Star Clusters in Other Galaxies'
p2729
aS'Star Clusters in the Milky Way'
p2730
aS'Dwarf Galaxies'
p2731
aS'Spirals & Irregulars'
p2732
aS'Gravitational Lensing'
p2733
aS'IGM'
p2734
aS'Cosmology: Observations'
p2735
aS'Cosmology: Theory'
p2736
aS'Large Scale Structure'
p2737
aS'Comet Hale-Bopp'
p2738
aS'Star-forming Galaxies'
p2739
aS'High Energy Phenomena in AGNs'
p2740
aS'COBE and the Search for the Cosmic Infrared Background'
p2741
aS'Very Young Stars, T-Tauri Stars, H-H Objects'
p2742
aS'Binary and Variable Stars'
p2743
aS'Pierce Prize Lecture'
p2744
aS'Cosmological Parameters and Large Scale Structure Formation'
p2745
aS'High-Throughput Spectroscopy & Imaging with XMM'
p2746
aS'Galactic Structure, Galactic Center'
p2747
aS'Globular Clusters'
p2748
aS'Supernovae & Supernova Remnants'
p2749
aS'HAD I - Special Palomar Session'
p2750
aS'Job Hunting Skills & Career Resources'
p2751
aS"Astronomy Teachers' Workshop I"
p2752
aS'Observing Optical Transients - Sharing Data and Techniques'
p2753
aS'Public Policy Session'
p2754
aS'Novae and Supernovae'
p2755
aS'Microlensing'
p2756
aS'Planets and Comets'
p2757
aS'High-Energy Phenomena'
p2758
aS'Interstellar Medium and Star Formation'
p2759
aS'QSOs and Radio Galaxies'
p2760
aS'Binary Stars'
p2761
aS'Surveys, SETI and Pollution'
p2762
aS'Real Calibrations'
p2763
aS'The Sun and Solar Wind'
p2764
aS'QSOs and Active Galaxies'
p2765
aS'CMB Radiation, Cosmology and Gravity'
p2766
aS'The Interstellar Medium'
p2767
aS'The Sun'
p2768
aS'HAD II - New Telescopes and New Tools'
p2769
aS"Astronomy Teachers' Workshop - II"
p2770
aS'Pierce Prize Lecture:  Ghez'
p2771
aS'Classroom Demos'
p2772
aS'Invited Talk:  Swank'
p2773
aS'Galaxies, Clusters of Galaxies and their Evolution'
p2774
aS'Proto Stars to Supernovae'
p2775
aS'IDEA Grants'
p2776
aS'HAD III - Astronomical Journal Sesquicentennial'
p2777
aS'Planets, Asteroids and Comets'
p2778
aS'Observational Cosmology - Baryons, Mass and Age of The Universe:  Tytler/Carlstrom'
p2779
aS'The Structure and Evolution of The Universe - I'
p2780
aS'RXTE Diagnostics of Active Galactic Nuclei'
p2781
aS'Gamma-ray Burst Counterparts and Afterglows'
p2782
aS'Real Instruments'
p2783
aS'Proposed Instruments and Programs'
p2784
aS'Active Galactic Nuclei'
p2785
aS'X-ray Clusters:  Implications for Cosmology'
p2786
aS'ADS and Expert Assistants'
p2787
aS'Astronomy Education'
p2788
aS'The Interstellar Medium'
p2789
aS'RXTE Diagnostics of Active Galactic Nuclei'
p2790
aS'Structure and Evolution of The Universe'
p2791
aS'Gamma-ray Burst Counterparts and Afterglows'
p2792
aS'Business Meeting'
p2793
aS'The Structure and Evolution of The Universe - II'
p2794
aS'Interstellar Scattering and Scintillation as Tools in Radio Astronomy'
p2795
aS'The Shapley Visiting Lectureship Program'
p2796
aS'Workshop on the Future of Antarctic Astrophysics - I'
p2797
aS'The Frontiers of Far Ultraviolet Astrophysics - I'
p2798
aS'Pulsars in the UV and Visible'
p2799
aS'Galaxy Evolution and the Intergalactic Medium'
p2800
aS'Source Surveys and CMB Radiation'
p2801
aS'SNs, Planetaries and Circumstellar Disks'
p2802
aS'Star Clusters, Kinematics and the Galactic Center'
p2803
aS'New Digital Sky Surveys'
p2804
aS'Frontiers of Ultraviolet Astrophysics'
p2805
aS'Interstellar Scattering and Scintillation as Tools in Radio Astronomy'
p2806
aS'Future of Antarctic Astrophysics'
p2807
aS'NSF Town Meeting'
p2808
aS'Committee on the Status of Women in Astronomy'
p2809
aS"IRAF Users' Group Meeting"
p2810
aS'Workshop on the Future of Antarctic Astrophysics - II'
p2811
aS'The Frontiers of Far Ultraviolet Astrophysics - II'
p2812
aS'New Digital Surveys in the Optical and Near IR:  Technical Challenges and Scientific Opportunities - II'
p2813
aS'Invited Talk:  Shafter'
p2814
aS'Galaxies'
p2815
aS'Stars: Evolution, Atmospheres, Intrinsic'
p2816
aS'Degenerate Stars, Pulsars'
p2817
aS'Starburst Galaxies'
p2818
aS'Cosmic Backgrounds and the Distant Universe'
p2819
aS'Survival Guide for Young Astronomers'
p2820
aS'Cosmic Rays and Abundances'
p2821
aS'Spiral Galaxies'
p2822
aS'Pulsars'
p2823
aS'Invited Talk:  Goldreich'
p2824
aS'NASA Town Meeting'
p2825
aS'Irregular and Star Burst Galaxies'
p2826
aS'X-ray Binaries'
p2827
aS'Special Objects in the Galaxy'
p2828
aS'Education, Green Flashes and Future Missions'
p2829
aa.