(lp0
(lp1
S'182'
p2
aS'182'
p3
aS'182'
p4
aS'182'
p5
aS'182'
p6
aS'182'
p7
aS'182'
p8
aS'182'
p9
aS'182'
p10
aS'182'
p11
aS'182'
p12
aS'182'
p13
aS'182'
p14
aS'182'
p15
aS'182'
p16
aS'182'
p17
aS'182'
p18
aS'182'
p19
aS'182'
p20
aS'182'
p21
aS'182'
p22
aS'182'
p23
aS'182'
p24
aS'182'
p25
aS'182'
p26
aS'182'
p27
aS'182'
p28
aS'182'
p29
aS'182'
p30
aS'182'
p31
aS'182'
p32
aS'182'
p33
aS'182'
p34
aS'182'
p35
aS'182'
p36
aS'182'
p37
aS'182'
p38
aS'182'
p39
aS'182'
p40
aS'182'
p41
aS'182'
p42
aS'182'
p43
aS'182'
p44
aS'182'
p45
aS'182'
p46
aS'182'
p47
aS'182'
p48
aS'182'
p49
aS'182'
p50
aS'182'
p51
aS'182'
p52
aS'182'
p53
aS'182'
p54
aS'182'
p55
aS'182'
p56
aS'182'
p57
aS'182'
p58
aS'182'
p59
aS'182'
p60
aS'182'
p61
aS'182'
p62
aS'182'
p63
aS'182'
p64
aS'182'
p65
aS'182'
p66
aS'182'
p67
aS'182'
p68
aS'182'
p69
aS'182'
p70
aS'182'
p71
aS'182'
p72
aS'182'
p73
aS'182'
p74
aS'182'
p75
aS'182'
p76
aS'182'
p77
aS'182'
p78
aS'182'
p79
aS'182'
p80
aS'182'
p81
aS'182'
p82
aS'183'
p83
aS'183'
p84
aS'183'
p85
aS'183'
p86
aS'183'
p87
aS'183'
p88
aS'183'
p89
aS'183'
p90
aS'183'
p91
aS'183'
p92
aS'183'
p93
aS'183'
p94
aS'183'
p95
aS'183'
p96
aS'183'
p97
aS'183'
p98
aS'183'
p99
aS'183'
p100
aS'183'
p101
aS'183'
p102
aS'183'
p103
aS'183'
p104
aS'183'
p105
aS'183'
p106
aS'183'
p107
aS'183'
p108
aS'183'
p109
aS'183'
p110
aS'183'
p111
aS'183'
p112
aS'183'
p113
aS'183'
p114
aS'183'
p115
aS'183'
p116
aS'183'
p117
aS'183'
p118
aS'183'
p119
aS'183'
p120
aS'183'
p121
aS'183'
p122
aS'183'
p123
aS'183'
p124
aS'183'
p125
aS'183'
p126
aS'183'
p127
aS'183'
p128
aS'183'
p129
aS'183'
p130
aS'183'
p131
aS'183'
p132
aS'183'
p133
aS'183'
p134
aS'183'
p135
aS'183'
p136
aS'183'
p137
aS'183'
p138
aS'183'
p139
aS'183'
p140
aS'183'
p141
aS'183'
p142
aS'183'
p143
aS'183'
p144
aS'183'
p145
aS'183'
p146
aS'183'
p147
aS'183'
p148
aS'183'
p149
aS'183'
p150
aS'183'
p151
aS'183'
p152
aS'183'
p153
aS'183'
p154
aS'183'
p155
aS'183'
p156
aS'183'
p157
aS'183'
p158
aS'183'
p159
aS'183'
p160
aS'183'
p161
aS'183'
p162
aS'183'
p163
aS'183'
p164
aS'183'
p165
aS'183'
p166
aS'183'
p167
aS'183'
p168
aS'183'
p169
aS'183'
p170
aS'183'
p171
aS'183'
p172
aS'183'
p173
aS'183'
p174
aS'183'
p175
aS'183'
p176
aS'183'
p177
aS'183'
p178
aS'183'
p179
aS'183'
p180
aS'183'
p181
aS'183'
p182
aS'183'
p183
aS'183'
p184
aS'183'
p185
aS'183'
p186
aS'183'
p187
aS'183'
p188
aS'183'
p189
aS'183'
p190
aS'183'
p191
aS'183'
p192
aS'183'
p193
aS'183'
p194
aS'183'
p195
aS'183'
p196
aS'183'
p197
aS'183'
p198
aS'183'
p199
aS'183'
p200
aS'183'
p201
aS'183'
p202
aS'183'
p203
aS'183'
p204
aS'183'
p205
aS'183'
p206
aS'183'
p207
aS'184'
p208
aS'184'
p209
aS'184'
p210
aS'184'
p211
aS'184'
p212
aS'184'
p213
aS'184'
p214
aS'184'
p215
aS'184'
p216
aS'184'
p217
aS'184'
p218
aS'184'
p219
aS'184'
p220
aS'184'
p221
aS'184'
p222
aS'184'
p223
aS'184'
p224
aS'184'
p225
aS'184'
p226
aS'184'
p227
aS'184'
p228
aS'184'
p229
aS'184'
p230
aS'184'
p231
aS'184'
p232
aS'184'
p233
aS'184'
p234
aS'184'
p235
aS'184'
p236
aS'184'
p237
aS'184'
p238
aS'184'
p239
aS'184'
p240
aS'184'
p241
aS'184'
p242
aS'184'
p243
aS'184'
p244
aS'184'
p245
aS'184'
p246
aS'184'
p247
aS'184'
p248
aS'184'
p249
aS'184'
p250
aS'184'
p251
aS'184'
p252
aS'184'
p253
aS'184'
p254
aS'184'
p255
aS'184'
p256
aS'184'
p257
aS'184'
p258
aS'184'
p259
aS'184'
p260
aS'184'
p261
aS'184'
p262
aS'184'
p263
aS'184'
p264
aS'184'
p265
aS'184'
p266
aS'184'
p267
aS'184'
p268
aS'184'
p269
aS'184'
p270
aS'184'
p271
aS'184'
p272
aS'184'
p273
aS'184'
p274
aS'184'
p275
aS'185'
p276
aS'185'
p277
aS'185'
p278
aS'185'
p279
aS'185'
p280
aS'185'
p281
aS'185'
p282
aS'185'
p283
aS'185'
p284
aS'185'
p285
aS'185'
p286
aS'185'
p287
aS'185'
p288
aS'185'
p289
aS'185'
p290
aS'185'
p291
aS'185'
p292
aS'185'
p293
aS'185'
p294
aS'185'
p295
aS'185'
p296
aS'185'
p297
aS'185'
p298
aS'185'
p299
aS'185'
p300
aS'185'
p301
aS'185'
p302
aS'185'
p303
aS'185'
p304
aS'185'
p305
aS'185'
p306
aS'185'
p307
aS'185'
p308
aS'185'
p309
aS'185'
p310
aS'185'
p311
aS'185'
p312
aS'185'
p313
aS'185'
p314
aS'185'
p315
aS'185'
p316
aS'185'
p317
aS'185'
p318
aS'185'
p319
aS'185'
p320
aS'185'
p321
aS'185'
p322
aS'185'
p323
aS'185'
p324
aS'185'
p325
aS'185'
p326
aS'185'
p327
aS'185'
p328
aS'185'
p329
aS'185'
p330
aS'185'
p331
aS'185'
p332
aS'185'
p333
aS'185'
p334
aS'185'
p335
aS'185'
p336
aS'185'
p337
aS'185'
p338
aS'185'
p339
aS'185'
p340
aS'185'
p341
aS'185'
p342
aS'185'
p343
aS'185'
p344
aS'185'
p345
aS'185'
p346
aS'185'
p347
aS'185'
p348
aS'185'
p349
aS'185'
p350
aS'185'
p351
aS'185'
p352
aS'185'
p353
aS'185'
p354
aS'185'
p355
aS'185'
p356
aS'185'
p357
aS'185'
p358
aS'185'
p359
aS'185'
p360
aS'185'
p361
aS'185'
p362
aS'185'
p363
aS'185'
p364
aS'185'
p365
aS'185'
p366
aS'185'
p367
aS'185'
p368
aS'185'
p369
aS'185'
p370
aS'185'
p371
aS'185'
p372
aS'185'
p373
aS'185'
p374
aS'185'
p375
aS'185'
p376
aS'185'
p377
aS'185'
p378
aS'185'
p379
aS'185'
p380
aS'185'
p381
aS'185'
p382
aS'185'
p383
aS'185'
p384
aS'185'
p385
aS'185'
p386
aS'185'
p387
aS'185'
p388
aS'185'
p389
aS'185'
p390
aS'185'
p391
aS'185'
p392
aS'185'
p393
aS'185'
p394
aS'185'
p395
aS'185'
p396
aS'185'
p397
aS'185'
p398
aa(lp399
S'1'
p400
aS'2'
p401
aS'3'
p402
aS'4'
p403
aS'5'
p404
aS'6'
p405
aS'7'
p406
aS'8'
p407
aS'9'
p408
aS'10'
p409
aS'11'
p410
aS'12'
p411
aS'13'
p412
aS'14'
p413
aS'15'
p414
aS'16'
p415
aS'17'
p416
aS'18'
p417
aS'19'
p418
aS'20'
p419
aS'21'
p420
aS'22'
p421
aS'23'
p422
aS'24'
p423
aS'25'
p424
aS'26'
p425
aS'27'
p426
aS'28'
p427
aS'29'
p428
aS'30'
p429
aS'31'
p430
aS'32'
p431
aS'33'
p432
aS'34'
p433
aS'35'
p434
aS'36'
p435
aS'37'
p436
aS'38'
p437
aS'39'
p438
aS'40'
p439
aS'41'
p440
aS'42'
p441
aS'43'
p442
aS'44'
p443
aS'45'
p444
aS'46'
p445
aS'47'
p446
aS'48'
p447
aS'49'
p448
aS'50'
p449
aS'51'
p450
aS'52'
p451
aS'53'
p452
aS'54'
p453
aS'55'
p454
aS'56'
p455
aS'57'
p456
aS'58'
p457
aS'59'
p458
aS'60'
p459
aS'61'
p460
aS'62'
p461
aS'63'
p462
aS'64'
p463
aS'65'
p464
aS'66'
p465
aS'67'
p466
aS'68'
p467
aS'69'
p468
aS'70'
p469
aS'71'
p470
aS'72'
p471
aS'73'
p472
aS'74'
p473
aS'75'
p474
aS'76'
p475
aS'77'
p476
aS'78'
p477
aS'79'
p478
aS'80'
p479
aS'81'
p480
ag400
ag401
ag402
ag403
ag404
ag405
ag406
ag407
ag408
aS'10'
p481
aS'11'
p482
aS'12'
p483
aS'13'
p484
aS'14'
p485
aS'15'
p486
aS'16'
p487
aS'17'
p488
aS'18'
p489
aS'19'
p490
aS'20'
p491
aS'21'
p492
aS'22'
p493
aS'23'
p494
aS'24'
p495
aS'25'
p496
aS'26'
p497
aS'27'
p498
aS'28'
p499
aS'29'
p500
aS'30'
p501
aS'31'
p502
aS'32'
p503
aS'33'
p504
aS'34'
p505
aS'35'
p506
aS'36'
p507
aS'37'
p508
aS'38'
p509
aS'39'
p510
aS'40'
p511
aS'41'
p512
aS'42'
p513
aS'43'
p514
aS'44'
p515
aS'45'
p516
aS'46'
p517
aS'47'
p518
aS'48'
p519
aS'49'
p520
aS'50'
p521
aS'51'
p522
aS'52'
p523
aS'53'
p524
aS'54'
p525
aS'55'
p526
aS'56'
p527
aS'57'
p528
aS'58'
p529
aS'59'
p530
aS'60'
p531
aS'61'
p532
aS'62'
p533
aS'63'
p534
aS'64'
p535
aS'65'
p536
aS'66'
p537
aS'67'
p538
aS'68'
p539
aS'69'
p540
aS'70'
p541
aS'71'
p542
aS'72'
p543
aS'73'
p544
aS'74'
p545
aS'75'
p546
aS'76'
p547
aS'77'
p548
aS'78'
p549
aS'79'
p550
aS'80'
p551
aS'81'
p552
aS'82'
p553
aS'83'
p554
aS'84'
p555
aS'85'
p556
aS'86'
p557
aS'87'
p558
aS'88'
p559
aS'89'
p560
aS'90'
p561
aS'91'
p562
aS'92'
p563
aS'93'
p564
aS'94'
p565
aS'95'
p566
aS'96'
p567
aS'97'
p568
aS'98'
p569
aS'99'
p570
aS'100'
p571
aS'101'
p572
aS'102'
p573
aS'103'
p574
aS'104'
p575
aS'105'
p576
aS'106'
p577
aS'107'
p578
aS'108'
p579
aS'109'
p580
aS'110'
p581
aS'111'
p582
aS'112'
p583
aS'113'
p584
aS'114'
p585
aS'115'
p586
aS'116'
p587
aS'117'
p588
aS'118'
p589
aS'119'
p590
aS'120'
p591
aS'121'
p592
aS'122'
p593
aS'123'
p594
aS'124'
p595
aS'125'
p596
ag400
ag401
ag402
ag403
ag404
ag405
ag406
ag407
ag408
aS'10'
p597
aS'11'
p598
aS'12'
p599
aS'13'
p600
aS'14'
p601
aS'15'
p602
aS'16'
p603
aS'17'
p604
aS'18'
p605
aS'19'
p606
aS'20'
p607
aS'21'
p608
aS'22'
p609
aS'23'
p610
aS'24'
p611
aS'25'
p612
aS'26'
p613
aS'27'
p614
aS'28'
p615
aS'29'
p616
aS'30'
p617
aS'31'
p618
aS'32'
p619
aS'33'
p620
aS'34'
p621
aS'35'
p622
aS'36'
p623
aS'37'
p624
aS'38'
p625
aS'39'
p626
aS'40'
p627
aS'41'
p628
aS'42'
p629
aS'43'
p630
aS'44'
p631
aS'45'
p632
aS'46'
p633
aS'47'
p634
aS'48'
p635
aS'49'
p636
aS'50'
p637
aS'51'
p638
aS'52'
p639
aS'53'
p640
aS'54'
p641
aS'55'
p642
aS'56'
p643
aS'57'
p644
aS'58'
p645
aS'59'
p646
aS'60'
p647
aS'61'
p648
aS'62'
p649
aS'63'
p650
aS'64'
p651
aS'65'
p652
aS'66'
p653
aS'67'
p654
aS'68'
p655
ag400
ag401
ag402
ag403
ag404
ag405
ag406
ag407
ag408
aS'10'
p656
aS'11'
p657
aS'12'
p658
aS'13'
p659
aS'14'
p660
aS'15'
p661
aS'16'
p662
aS'17'
p663
aS'18'
p664
aS'19'
p665
aS'20'
p666
aS'21'
p667
aS'22'
p668
aS'23'
p669
aS'24'
p670
aS'25'
p671
aS'26'
p672
aS'27'
p673
aS'28'
p674
aS'29'
p675
aS'30'
p676
aS'31'
p677
aS'32'
p678
aS'33'
p679
aS'34'
p680
aS'35'
p681
aS'36'
p682
aS'37'
p683
aS'38'
p684
aS'39'
p685
aS'40'
p686
aS'41'
p687
aS'42'
p688
aS'43'
p689
aS'44'
p690
aS'45'
p691
aS'46'
p692
aS'47'
p693
aS'48'
p694
aS'49'
p695
aS'50'
p696
aS'51'
p697
aS'52'
p698
aS'53'
p699
aS'54'
p700
aS'55'
p701
aS'56'
p702
aS'57'
p703
aS'58'
p704
aS'59'
p705
aS'60'
p706
aS'61'
p707
aS'62'
p708
aS'63'
p709
aS'64'
p710
aS'65'
p711
aS'66'
p712
aS'67'
p713
aS'68'
p714
aS'69'
p715
aS'70'
p716
aS'71'
p717
aS'72'
p718
aS'73'
p719
aS'74'
p720
aS'75'
p721
aS'76'
p722
aS'77'
p723
aS'78'
p724
aS'79'
p725
aS'80'
p726
aS'81'
p727
aS'82'
p728
aS'83'
p729
aS'84'
p730
aS'85'
p731
aS'86'
p732
aS'87'
p733
aS'88'
p734
aS'89'
p735
aS'90'
p736
aS'91'
p737
aS'92'
p738
aS'93'
p739
aS'94'
p740
aS'95'
p741
aS'96'
p742
aS'97'
p743
aS'98'
p744
aS'99'
p745
aS'100'
p746
aS'101'
p747
aS'102'
p748
aS'103'
p749
aS'104'
p750
aS'105'
p751
aS'106'
p752
aS'107'
p753
aS'108'
p754
aS'109'
p755
aS'110'
p756
aS'111'
p757
aS'112'
p758
aS'113'
p759
aS'114'
p760
aS'115'
p761
aS'116'
p762
aS'117'
p763
aS'118'
p764
aS'119'
p765
aS'120'
p766
aS'121'
p767
aS'122'
p768
aS'123'
p769
aa(lp770
S'Invited Talk'
p771
aS'Planetary Nebula and Supernova Remnants'
p772
aS'Databases and Software'
p773
aS'AGNs'
p774
aS'Cosmology and Gravitational Lenses'
p775
aS'Normal Galaxies: Structure and Dynamics'
p776
aS'X-Ray Binaries and Gamma-Ray Binaries'
p777
aS'General ISM, Dust'
p778
aS'WGAS'
p779
aS'Teaching of Astronomy'
p780
aS'Education'
p781
aS'High Energy Observations of AGNs'
p782
aS'Large Scale Structure'
p783
aS'Education I'
p784
aS'Solar and Solar-System Physics'
p785
aS'WGAS I'
p786
aS'Normal Galaxies'
p787
aS'Invited Talk'
p788
aS'Supernovae and SNRs'
p789
aS'General ISM'
p790
aS'Education II'
p791
aS'Late-Type and Variable Stars'
p792
aS'Emission-Line, Starburst and Ultra-Luminous Galaxies'
p793
aS'Invited Talk'
p794
aS'EUVE -- Astronomy I'
p795
aS'Interferometry I'
p796
aS'Hat Creek'
p797
aS'HST Instruments and Techniques'
p798
aS'Novae and Supernovae'
p799
aS'Clusters of Galaxies'
p800
aS'Star-Forming Galaxies'
p801
aS'Local Group Galaxies'
p802
aS'Gamma-Rays and Cosmic Rays'
p803
aS'Airbourne Astronomy'
p804
aS'Hat Creek'
p805
aS'Particle Astrophysics'
p806
aS'Interferometry'
p807
aS'EUVE -- Astronomy II'
p808
aS'Interferometry II'
p809
aS'Particle Astrophysics'
p810
aS'EUVE -- Astronomy'
p811
aS'Invited Talk'
p812
aS'Galactic Structure'
p813
aS'Radio Galaxies, Jets and Disks'
p814
aS'Early Type Stars'
p815
aS'Late Type Stars'
p816
aS'Degenerates'
p817
aS'Solar and Solar-System Physics'
p818
aS'Associations and Clusters'
p819
aS'Globular Clusters'
p820
aS'Instrumentation'
p821
aS'NSF Astronomy'
p822
aS'AGN and Radio Galaxies I'
p823
aS'MW, Galactic Structure'
p824
aS'SN 1993J; High Energy Astrophysics'
p825
aS'Stellar Evolution and Clusters'
p826
aS'Russell Lecture'
p827
aS'Invited Talks'
p828
aS'Invited Talk'
p829
aS'HII Regions'
p830
aS'Molecular Clouds, Star Formation'
p831
aS'Very Young Stars'
p832
aS'Intrinsic and Cataclysmic Variables'
p833
aS'Pulsars'
p834
aS'Women In Astronomy'
p835
aS'HAD'
p836
aS'Galaxy Clusters and the Extragalactic Distance Scale'
p837
aS'Star Formation'
p838
aS'Cataclysmic Variables and Pulsars'
p839
aS'AGNs and Radio Galaxies II'
p840
aS'Instruments and Techniques'
p841
aS'HAD'
p842
aS'Invited Talk'
p843
aS'Gamma-Ray Bursts'
p844
aS'Star Formation II'
p845
aS'Keck'
p846
aS'Cosmic Background Radiation'
p847
aS'QSOs and Gravitational Lenses'
p848
aS'HAD/Huntington I'
p849
aS'HAD/Huntington II'
p850
aS'HAD/Huntington III'
p851
aS'Astronomy and the State'
p852
aS'Invited Talk'
p853
aS'Galaxy Surveys'
p854
aS'Gamma Ray Astrophysics'
p855
aS'ROSAT Observations of Clusters and Groups'
p856
aS'Miscellaneous'
p857
aS'Solar Activity'
p858
aS'Solar Observations and Instrumentation'
p859
aS'Solar System'
p860
aS'South Polar and Lunar Telescopes'
p861
aS'Gemini, Keck, Seeing'
p862
aS'Absorption Lines in QSOs'
p863
aS'HII Regions'
p864
aS'Interstellar Dust and Extinction'
p865
aS'Flare and Active Stars'
p866
aS'Molecular Clouds'
p867
aS'Stellar Spectroscopy and Photometry: Surveys and General results'
p868
aS'Stellar Spectra: Individual Objects'
p869
aS'Gas and Star Formation in Spiral Galaxies'
p870
aS'Mergers, Masers and Megamasers'
p871
aS'Diffuse Galactic Emission'
p872
aS'ROSAT'
p873
aS'Galaxies I'
p874
aS'Star Clusters/General Relativity'
p875
aS'Solar System and Heliosphere'
p876
aS'Molecular Cloud Structure and Energetics'
p877
aS'Celestial Visibility'
p878
aS'Invited Talk'
p879
aS'Gamma Ray Astrophysics'
p880
aS'Seyfert Galaxies'
p881
aS'Supernovae'
p882
aS'Circumstellar Environments'
p883
aS'Galaxies II'
p884
aS'HAD'
p885
aS'Invited Talk'
p886
aS'Invited Talk'
p887
aS'Pulsars'
p888
aS'Supernovae'
p889
aS'SN1993J, SN1978K and SN1987A'
p890
aS'Young Stars and T Tauri Stars'
p891
aS'Circumstellar Disks'
p892
aS'Ellipticals'
p893
aS'HII Regions and Star Formation in Spirals'
p894
aS'Interstellar Medium'
p895
aS'IUE Final Archive'
p896
aS'Seyfert Galaxies and LINERS'
p897
aS'Radio Telescopes, Miscellaneous'
p898
aS'Software and Analytical Tools'
p899
aS'Star Formation'
p900
aS'White Dwarfs'
p901
aS'Planetary Nebulae'
p902
aS'Interacting Binaries: Accretion Phenomena'
p903
aS'Cluster Cooling Flows and Abundances'
p904
aS'Interacting Binaries: Hot Stars'
p905
aS'Interacting Binaries: CVs and XRBs'
p906
aS'Luminous AGNs'
p907
aS'Galaxies III'
p908
aS'Outflows and the Low Mass IMF'
p909
aS'Solar Surface and Corona'
p910
aS'Galactic Structure'
p911
aS'Education/Curriculum'
p912
aS'Public Policy Address'
p913
aS'The Changing Climate for Federal Funding'
p914
aS'AGN Surveys and High Energy Spectra'
p915
aS'Interacting Binaries: Compact Stars'
p916
aS'Spiral Galaxies'
p917
aS'Cosmology and Distance Indicators'
p918
aS'Solar Activity'
p919
aS'Invited Talks'
p920
aS'Invited Talk'
p921
aS'Galaxy and CBR Distribution'
p922
aS'High Z Line Measurements; Gravitational Microlensing: Distance Determination'
p923
aS'Astrometric Instruments and Results'
p924
aS'Globular Clusters'
p925
aS'VLBI Obsesrvations'
p926
aS'Spiral and Bar Structure in Galaxies'
p927
aS'Starbursts'
p928
aS'Galactic Structure and Star Counts'
p929
aS'Structure of Galaxies'
p930
aS'AGN and Jets'
p931
aS'Stellar Winds and Outflows'
p932
aS'Relativistic Astrophysics'
p933
aS'Supernova Remnants'
p934
aS'Variable Stars'
p935
aS"Interacting Binaries: ``Normal'' Stars"
p936
aS'Double Stars'
p937
aS'Cluster Evolution'
p938
aS'Teaching Astronomy'
p939
aS'HEAD I - ASCA'
p940
aS'Absorption in AGN Spectra'
p941
aS'Radio Galaxies and Lyman Continuum Absorption'
p942
aS'Dust and Gas in the ISM'
p943
aS'Pulsars'
p944
aS'Education/Demonstrations'
p945
aS'Warner Prize Lecture'
p946
aS'HEAD II - SN1993J'
p947
aS'Astronomers Meet the Press'
p948
aS'Galaxies and Cluster Environment'
p949
aS'Molecular Clouds and Star Formation'
p950
aS'AGN: Unified Picture'
p951
aS'Evolved Stars, Supernova Remnants'
p952
aS'Invited Talks'
p953
aS'Pierce Prize Lecture'
p954
aS'Radio Galaxies and AGN'
p955
aS'Broad Absorption Line Quasars'
p956
aS'AGN'
p957
aS'BL Lacs and Blazars'
p958
aS'Dwarf and Irregular Galaxies'
p959
aS'Stellar Populations'
p960
aS'Open Clusters'
p961
aS'Stellar Interiors'
p962
aS'Models and Synthetic Spectroscopy'
p963
aS'HST, UIT and UV Instruments, UV Processing and Archives'
p964
aS'Multi-Phase Interstellar Medium'
p965
aS'Cosmology and Dark Matter'
p966
aS'Galactic Center and Diffuse Galactic Emission'
p967
aS'Astronomical Instruments and Techniques'
p968
aS'WGAS'
p969
aS'Starbursts and Seyfert 2s'
p970
aS'Heineman Prize Lecture'
p971
aS'Cosmology and CMB'
p972
aS'AGN: Accretion Disks, Tori and Gas'
p973
aS'Intrinsic Variables and Active Stars'
p974
aS'Special Interest Session Sponsored by WGAS'
p975
aS'Structure of Clusters of Galaxies'
p976
aS'Brouwer Prize Lecture'
p977
aS'Education'
p978
aS'HST Performance and Process'
p979
aS'Solar System'
p980
aS'Chromospheres/Coronae/Active Binaries'
p981
aS'Binary Stars'
p982
aS'Stellar Abundances Across the H-R Diagram'
p983
aS'Pulsars'
p984
aS'Galactic X-Ray/Gamma-Ray Sources'
p985
aS'Gamma Ray Sources'
p986
aS'Luminous AGN and QSOs'
p987
aS'Starburst Galaxies'
p988
aS'Models or Gas Flows and Spectral Formation'
p989
aS'Comets, Asteroids, Meteoroids'
p990
aS'Gamma Ray Bursts'
p991
aS'Molecular Clouds, Star Formation, Very Young Stars, T Tauri Stars'
p992
aS'Radio Galaxies and High Luminosity AGNs'
p993
aS'Astronomers Outside the University'
p994
aS'Rossi Prize Lecture'
p995
aS'Cosmic X-Ray and Microwave Background'
p996
aS'Pulsars'
p997
aS'Galaxy Structure and Kinematics'
p998
aS'Starburst Activity in External Galaxies'
p999
aS'Invited Talk'
p1000
aS'SIRTF'
p1001
aS'Detectors and Telescopes'
p1002
aS'Digitizing the Sky'
p1003
aS'Software and Catalogs'
p1004
aS'General Interstellar Medium'
p1005
aS'Star Formation, Molecular Clouds and HII Regions'
p1006
aS'Massive Hot Stars'
p1007
aS'Galaxy Dynamics'
p1008
aS'Relativistic Astrophysics'
p1009
aS'Massive Hot Stars with the Hubble Space Telescope Part I'
p1010
aS'Digitizing the Sky Part I'
p1011
aS'Galaxy Dynamics: Theory and Observation'
p1012
aS'Massive Hot Stars with the Hubble Space Telescope Part II'
p1013
aS'Digitizing the Sky Part II'
p1014
aS'Infrared Space Observatory'
p1015
aS'Computational Astrophysics I'
p1016
aS'Computational Astrophysics II'
p1017
aS'Astrometry'
p1018
aS'Searching for Brown Dwarfs'
p1019
aS'Young Stars, T Tauri Stars, Herbig Haro Objects'
p1020
aS'CVs/Symbiotic Stars'
p1021
aS'Novae'
p1022
aS'Nova Cygni 1992'
p1023
aS'Spiral, Dwarf and Irregular Galaxies'
p1024
aS'Elliptical Galaxies'
p1025
aS'Grand Challenges in Computational Astrophysics Part I'
p1026
aS'Brown Dwarfs and Very Low Mass Stars'
p1027
aS'Grand Challenges in Computational Astrophysics Part II'
p1028
aS'Recent Observational Results on Nova Cygni 1992'
p1029
aS'Invited Talk'
p1030
aS'Pulsating Variables/Stellar Models'
p1031
aS'Supernova Remnants Observation'
p1032
aS'Planetary Nebulae/Supernovae/Ejecta'
p1033
aS'The Galaxy'
p1034
aS'Low Luminosity AGNs and Active Galaxies'
p1035
aS'Intergalactic Medium'
p1036
aS'Properties and Evolution of Clusters of Galaxies'
p1037
aS'Large Scale Structures'
p1038
aS'Large Scale Structure and Cosmology'
p1039
aS'Low Luminosity AGNs and Active Galaxies'
p1040
aS'The Galaxy and Galactic ISM'
p1041
aS'Supernova Remnants'
p1042
aS'Compact Objects/Stellar Winds'
p1043
aS'Invited Talk'
p1044
aS'Southwestern Archaeoastronomy'
p1045
aS'History in Astronomy Education I'
p1046
aS'Invited Talk'
p1047
aS'Public Outreach'
p1048
aS'Education'
p1049
aS'Positional Astronomy'
p1050
aS'Radiative Transfer and Opacities'
p1051
aS'Radio Surveys and Techniques'
p1052
aS'HST Observing and Instruments'
p1053
aS'Remote Observing, Ground-Based Telescopes and, Space Instruments'
p1054
aS'Novae'
p1055
aS'Interstellar Medium'
p1056
aS'Integalactic Medium'
p1057
aS'Lyman Alpha Clouds'
p1058
aS'Gamma Ray Bursts'
p1059
aS'>100 GeV Gamma Ray Astronomy'
p1060
aS'MACHO Projects'
p1061
aS'AGN Spectroscopy'
p1062
aS'Multiwavelength AGN Studies'
p1063
aS'AGN Environments'
p1064
aS'Cataclysmic Variables, Dwarf Novae'
p1065
aS'Galactic Structure; Galactic Center'
p1066
aS'Gravitational Lensing'
p1067
aS'The Distance Scale'
p1068
aS'Ellipticals and Dark Matter'
p1069
aS'Interstellar Medium and Radiative Shocks'
p1070
aS'Spectroscopy of AGN I: Narrowlines'
p1071
aS'Mechanisms of Supernova Explosions'
p1072
aS'Education'
p1073
aS'History of Astronomy'
p1074
aS'Russell Prize Lecture'
p1075
aS'COBE'
p1076
aS'Supernovae'
p1077
aS'Spectroscopy of AGN II: Broad Lines and Spectral Evolution'
p1078
aS'Dwarf Galaxies'
p1079
aS'Giant and Supergiant Stars'
p1080
aS'History in Astronomy Education II'
p1081
aS'Invited Talks'
p1082
aS'Hale Prize Lecture'
p1083
aS'Numerical Techniques and Models'
p1084
aS'Catalogs, Computer Information, Services, Analysis and Tools'
p1085
aS'High-Spatial Resolution'
p1086
aS'SL-9, Comets, Solar System'
p1087
aS'Solar Observations and Theory'
p1088
aS'Stellar Activity I'
p1089
aS'White Dwarfs'
p1090
aS'Planetary Nebulae'
p1091
aS'Young Stars'
p1092
aS'Interstellar Dust and Polarization'
p1093
aS'Supernova Remnants'
p1094
aS'Dwarf Galaxies'
p1095
aS'Elliptical Galaxies'
p1096
aS'Clusters of Galaxies I'
p1097
aS'HST Medium Deep Survey'
p1098
aS'Early Universe'
p1099
aS'Large-Scale Structure'
p1100
aS'COBE and Related Papers'
p1101
aS'Distance Scale, Spiral Galaxies I'
p1102
aS'General Properties of AGN'
p1103
aS'Extremes in Astrophysics'
p1104
aS'Novae and Stellar Accretion'
p1105
aS'Supernova Remnants and Pulsars'
p1106
aS'WGAIT'
p1107
aS'Urey Prize Lecture'
p1108
aS'SL-9 Impact, PLanets'
p1109
aS'Galactic Center'
p1110
aS'Timing in X-Ray Astronomy</b>\n'
p1111
aS'Starbursts and Interacting Galaxies'
p1112
aS'Remote Observing'
p1113
aS'Active Galaxies and Intergalactic Medium'
p1114
aS'Pollution'
p1115
aS'Invited Talks: Impacts and Vulcanism'
p1116
aS'Warner Prize Lecture'
p1117
aS'Clusters of Galaxies II: X-Rays'
p1118
aS'Interacting Galaxies and Starbursts'
p1119
aS'Spirals I'
p1120
aS'Spirals II'
p1121
aS'Pulsars and Neutron Stars'
p1122
aS'Supernovae: Observations and Theory'
p1123
aS'Stellar Activity II: Early Type Stars, Normal Stars'
p1124
aS"YSO's, Masers and Molecules"
p1125
aS'HII Regions'
p1126
aS'Circumstellar Gas and Dust'
p1127
aS'Star Forming Clouds'
p1128
aS'Binaries'
p1129
aS'Solar Active Regions'
p1130
aS'HST'
p1131
aS'Mulit-Wavelength Observations of Blazars and BL Lacertae Objects'
p1132
aS'Clusters of Galaxies - Galaxy Evolution'
p1133
aS'Planetary Nebula and Degenerate Stars'
p1134
aS'Young Stars and Young Clusters'
p1135
aS'Solar Active Regions and Solar Wind'
p1136
aS'HST'
p1137
aS'Acceleration and Jets in AGN, High Redshift Quasars, Polarization'
p1138
aS'Substructures of Galaxy Clusters, Field Galaxies'
p1139
aS'YSOs and Masers'
p1140
aS'Milky Way'
p1141
aS'Activity and Abundances Near the Main Sequence'
p1142
aS'Invited Talks: Star Formation'
p1143
aS'Heineman Prize Lecture'
p1144
aS'Intrinsic Variables'
p1145
aS'X-Ray Variables, Binaries and Transients'
p1146
aS'Open and Globular Clusters'
p1147
aS'Globular Clusters'
p1148
aS'Barred Spirals'
p1149
aS'Galaxies: Photometry and Spectrophotometry'
p1150
aS'Galaxies: Morphology and Interactions'
p1151
aS'Seyfert Galaxies'
p1152
aS'Extragalactic Radio Sources, Jets'
p1153
aS'Blazars and BL Lacs'
p1154
aS'Gamma Ray Bursts'
p1155
aS'Microlensing and the Search for MACHOS'
p1156
aS'Early Universe and Cosmic Microwave Background'
p1157
aS'Compact Groups, Galaxy and Quasar Clustering'
p1158
aS'WGAS'
p1159
aS'Globular Clusters and Compact Objects'
p1160
aS'Invited Talk'
p1161
aS'Cosmic Microwave Background'
p1162
aS'Galaxies and Clusters of Galaxies, X-Ray Observations'
p1163
aS'Galactic Gamma Rays'
p1164
aS'Early Stars, X-Ray Binaries, Theory'
p1165
aS'Ultracompact HII Regions and Star Formation'
p1166
aS'Solar Magnetic Field and Solar Variabilty'
p1167
aa.