(lp0
(lp1
S'182'
p2
aS'182'
p3
aS'182'
p4
aS'182'
p5
aS'182'
p6
aS'182'
p7
aS'182'
p8
aS'182'
p9
aS'182'
p10
aS'182'
p11
aS'182'
p12
aS'182'
p13
aS'182'
p14
aS'182'
p15
aS'182'
p16
aS'182'
p17
aS'182'
p18
aS'182'
p19
aS'182'
p20
aS'182'
p21
aS'182'
p22
aS'182'
p23
aS'182'
p24
aS'182'
p25
aS'182'
p26
aS'182'
p27
aS'182'
p28
aS'182'
p29
aS'182'
p30
aS'182'
p31
aS'182'
p32
aS'182'
p33
aS'182'
p34
aS'182'
p35
aS'182'
p36
aS'182'
p37
aS'182'
p38
aS'182'
p39
aS'182'
p40
aS'182'
p41
aS'182'
p42
aS'182'
p43
aS'182'
p44
aS'182'
p45
aS'182'
p46
aS'182'
p47
aS'182'
p48
aS'182'
p49
aS'182'
p50
aS'182'
p51
aS'182'
p52
aS'182'
p53
aS'182'
p54
aS'182'
p55
aS'182'
p56
aS'182'
p57
aS'182'
p58
aS'182'
p59
aS'182'
p60
aS'182'
p61
aS'182'
p62
aS'182'
p63
aS'182'
p64
aS'182'
p65
aS'182'
p66
aS'182'
p67
aS'182'
p68
aS'182'
p69
aS'182'
p70
aS'182'
p71
aS'182'
p72
aS'182'
p73
aS'182'
p74
aS'182'
p75
aS'182'
p76
aS'182'
p77
aS'182'
p78
aS'182'
p79
aS'182'
p80
aS'182'
p81
aS'182'
p82
aS'183'
p83
aS'183'
p84
aS'183'
p85
aS'183'
p86
aS'183'
p87
aS'183'
p88
aS'183'
p89
aS'183'
p90
aS'183'
p91
aS'183'
p92
aS'183'
p93
aS'183'
p94
aS'183'
p95
aS'183'
p96
aS'183'
p97
aS'183'
p98
aS'183'
p99
aS'183'
p100
aS'183'
p101
aS'183'
p102
aS'183'
p103
aS'183'
p104
aS'183'
p105
aS'183'
p106
aS'183'
p107
aS'183'
p108
aS'183'
p109
aS'183'
p110
aS'183'
p111
aS'183'
p112
aS'183'
p113
aS'183'
p114
aS'183'
p115
aS'183'
p116
aS'183'
p117
aS'183'
p118
aS'183'
p119
aS'183'
p120
aS'183'
p121
aS'183'
p122
aS'183'
p123
aS'183'
p124
aS'183'
p125
aS'183'
p126
aS'183'
p127
aS'183'
p128
aS'183'
p129
aS'183'
p130
aS'183'
p131
aS'183'
p132
aS'183'
p133
aS'183'
p134
aS'183'
p135
aS'183'
p136
aS'183'
p137
aS'183'
p138
aS'183'
p139
aS'183'
p140
aS'183'
p141
aS'183'
p142
aS'183'
p143
aS'183'
p144
aS'183'
p145
aS'183'
p146
aS'183'
p147
aS'183'
p148
aS'183'
p149
aS'183'
p150
aS'183'
p151
aS'183'
p152
aS'183'
p153
aS'183'
p154
aS'183'
p155
aS'183'
p156
aS'183'
p157
aS'183'
p158
aS'183'
p159
aS'183'
p160
aS'183'
p161
aS'183'
p162
aS'183'
p163
aS'183'
p164
aS'183'
p165
aS'183'
p166
aS'183'
p167
aS'183'
p168
aS'183'
p169
aS'183'
p170
aS'183'
p171
aS'183'
p172
aS'183'
p173
aS'183'
p174
aS'183'
p175
aS'183'
p176
aS'183'
p177
aS'183'
p178
aS'183'
p179
aS'183'
p180
aS'183'
p181
aS'183'
p182
aS'183'
p183
aS'183'
p184
aS'183'
p185
aS'183'
p186
aS'183'
p187
aS'183'
p188
aS'183'
p189
aS'183'
p190
aS'183'
p191
aS'183'
p192
aS'183'
p193
aS'183'
p194
aS'183'
p195
aS'183'
p196
aS'183'
p197
aS'183'
p198
aS'183'
p199
aS'183'
p200
aS'183'
p201
aS'183'
p202
aS'183'
p203
aS'183'
p204
aS'183'
p205
aS'183'
p206
aS'183'
p207
aS'184'
p208
aS'184'
p209
aS'184'
p210
aS'184'
p211
aS'184'
p212
aS'184'
p213
aS'184'
p214
aS'184'
p215
aS'184'
p216
aS'184'
p217
aS'184'
p218
aS'184'
p219
aS'184'
p220
aS'184'
p221
aS'184'
p222
aS'184'
p223
aS'184'
p224
aS'184'
p225
aS'184'
p226
aS'184'
p227
aS'184'
p228
aS'184'
p229
aS'184'
p230
aS'184'
p231
aS'184'
p232
aS'184'
p233
aS'184'
p234
aS'184'
p235
aS'184'
p236
aS'184'
p237
aS'184'
p238
aS'184'
p239
aS'184'
p240
aS'184'
p241
aS'184'
p242
aS'184'
p243
aS'184'
p244
aS'184'
p245
aS'184'
p246
aS'184'
p247
aS'184'
p248
aS'184'
p249
aS'184'
p250
aS'184'
p251
aS'184'
p252
aS'184'
p253
aS'184'
p254
aS'184'
p255
aS'184'
p256
aS'184'
p257
aS'184'
p258
aS'184'
p259
aS'184'
p260
aS'184'
p261
aS'184'
p262
aS'184'
p263
aS'184'
p264
aS'184'
p265
aS'184'
p266
aS'184'
p267
aS'184'
p268
aS'184'
p269
aS'184'
p270
aS'184'
p271
aS'184'
p272
aS'184'
p273
aS'184'
p274
aS'184'
p275
aS'185'
p276
aS'185'
p277
aS'185'
p278
aS'185'
p279
aS'185'
p280
aS'185'
p281
aS'185'
p282
aS'185'
p283
aS'185'
p284
aS'185'
p285
aS'185'
p286
aS'185'
p287
aS'185'
p288
aS'185'
p289
aS'185'
p290
aS'185'
p291
aS'185'
p292
aS'185'
p293
aS'185'
p294
aS'185'
p295
aS'185'
p296
aS'185'
p297
aS'185'
p298
aS'185'
p299
aS'185'
p300
aS'185'
p301
aS'185'
p302
aS'185'
p303
aS'185'
p304
aS'185'
p305
aS'185'
p306
aS'185'
p307
aS'185'
p308
aS'185'
p309
aS'185'
p310
aS'185'
p311
aS'185'
p312
aS'185'
p313
aS'185'
p314
aS'185'
p315
aS'185'
p316
aS'185'
p317
aS'185'
p318
aS'185'
p319
aS'185'
p320
aS'185'
p321
aS'185'
p322
aS'185'
p323
aS'185'
p324
aS'185'
p325
aS'185'
p326
aS'185'
p327
aS'185'
p328
aS'185'
p329
aS'185'
p330
aS'185'
p331
aS'185'
p332
aS'185'
p333
aS'185'
p334
aS'185'
p335
aS'185'
p336
aS'185'
p337
aS'185'
p338
aS'185'
p339
aS'185'
p340
aS'185'
p341
aS'185'
p342
aS'185'
p343
aS'185'
p344
aS'185'
p345
aS'185'
p346
aS'185'
p347
aS'185'
p348
aS'185'
p349
aS'185'
p350
aS'185'
p351
aS'185'
p352
aS'185'
p353
aS'185'
p354
aS'185'
p355
aS'185'
p356
aS'185'
p357
aS'185'
p358
aS'185'
p359
aS'185'
p360
aS'185'
p361
aS'185'
p362
aS'185'
p363
aS'185'
p364
aS'185'
p365
aS'185'
p366
aS'185'
p367
aS'185'
p368
aS'185'
p369
aS'185'
p370
aS'185'
p371
aS'185'
p372
aS'185'
p373
aS'185'
p374
aS'185'
p375
aS'185'
p376
aS'185'
p377
aS'185'
p378
aS'185'
p379
aS'185'
p380
aS'185'
p381
aS'185'
p382
aS'185'
p383
aS'185'
p384
aS'185'
p385
aS'185'
p386
aS'185'
p387
aS'185'
p388
aS'185'
p389
aS'185'
p390
aS'185'
p391
aS'185'
p392
aS'185'
p393
aS'185'
p394
aS'185'
p395
aS'185'
p396
aS'185'
p397
aS'185'
p398
aS'186'
p399
aS'186'
p400
aS'186'
p401
aS'186'
p402
aS'186'
p403
aS'186'
p404
aS'186'
p405
aS'186'
p406
aS'186'
p407
aS'186'
p408
aS'186'
p409
aS'186'
p410
aS'186'
p411
aS'186'
p412
aS'186'
p413
aS'186'
p414
aS'186'
p415
aS'186'
p416
aS'186'
p417
aS'186'
p418
aS'186'
p419
aS'186'
p420
aS'186'
p421
aS'186'
p422
aS'186'
p423
aS'186'
p424
aS'186'
p425
aS'186'
p426
aS'186'
p427
aS'186'
p428
aS'186'
p429
aS'186'
p430
aS'186'
p431
aS'186'
p432
aS'186'
p433
aS'186'
p434
aS'186'
p435
aS'186'
p436
aS'186'
p437
aS'186'
p438
aS'186'
p439
aS'186'
p440
aS'186'
p441
aS'186'
p442
aS'186'
p443
aS'186'
p444
aS'186'
p445
aS'186'
p446
aS'186'
p447
aS'186'
p448
aS'186'
p449
aS'186'
p450
aS'186'
p451
aS'186'
p452
aS'186'
p453
aS'186'
p454
aS'186'
p455
aS'187'
p456
aS'187'
p457
aS'187'
p458
aS'187'
p459
aS'187'
p460
aS'187'
p461
aS'187'
p462
aS'187'
p463
aS'187'
p464
aS'187'
p465
aS'187'
p466
aS'187'
p467
aS'187'
p468
aS'187'
p469
aS'187'
p470
aS'187'
p471
aS'187'
p472
aS'187'
p473
aS'187'
p474
aS'187'
p475
aS'187'
p476
aS'187'
p477
aS'187'
p478
aS'187'
p479
aS'187'
p480
aS'187'
p481
aS'187'
p482
aS'187'
p483
aS'187'
p484
aS'187'
p485
aS'187'
p486
aS'187'
p487
aS'187'
p488
aS'187'
p489
aS'187'
p490
aS'187'
p491
aS'187'
p492
aS'187'
p493
aS'187'
p494
aS'187'
p495
aS'187'
p496
aS'187'
p497
aS'187'
p498
aS'187'
p499
aS'187'
p500
aS'187'
p501
aS'187'
p502
aS'187'
p503
aS'187'
p504
aS'187'
p505
aS'187'
p506
aS'187'
p507
aS'187'
p508
aS'187'
p509
aS'187'
p510
aS'187'
p511
aS'187'
p512
aS'187'
p513
aS'187'
p514
aS'187'
p515
aS'187'
p516
aS'187'
p517
aS'187'
p518
aS'187'
p519
aS'187'
p520
aS'187'
p521
aS'187'
p522
aS'187'
p523
aS'187'
p524
aS'187'
p525
aS'187'
p526
aS'187'
p527
aS'187'
p528
aS'187'
p529
aS'187'
p530
aS'187'
p531
aS'187'
p532
aS'187'
p533
aS'187'
p534
aS'187'
p535
aS'187'
p536
aS'187'
p537
aS'187'
p538
aS'187'
p539
aS'187'
p540
aS'187'
p541
aS'187'
p542
aS'187'
p543
aS'187'
p544
aS'187'
p545
aS'187'
p546
aS'187'
p547
aS'187'
p548
aS'187'
p549
aS'187'
p550
aS'187'
p551
aS'187'
p552
aS'187'
p553
aS'187'
p554
aS'188'
p555
aS'188'
p556
aS'188'
p557
aS'188'
p558
aS'188'
p559
aS'188'
p560
aS'188'
p561
aS'188'
p562
aS'188'
p563
aS'188'
p564
aS'188'
p565
aS'188'
p566
aS'188'
p567
aS'188'
p568
aS'188'
p569
aS'188'
p570
aS'188'
p571
aS'188'
p572
aS'188'
p573
aS'188'
p574
aS'188'
p575
aS'188'
p576
aS'188'
p577
aS'188'
p578
aS'188'
p579
aS'188'
p580
aS'188'
p581
aS'188'
p582
aS'188'
p583
aS'188'
p584
aS'188'
p585
aS'188'
p586
aS'188'
p587
aS'188'
p588
aS'188'
p589
aS'188'
p590
aS'188'
p591
aS'188'
p592
aS'188'
p593
aS'188'
p594
aS'188'
p595
aS'188'
p596
aS'188'
p597
aS'188'
p598
aS'188'
p599
aS'188'
p600
aS'188'
p601
aS'188'
p602
aS'188'
p603
aS'188'
p604
aS'188'
p605
aS'188'
p606
aS'188'
p607
aS'188'
p608
aS'188'
p609
aS'188'
p610
aS'188'
p611
aS'188'
p612
aS'188'
p613
aS'188'
p614
aS'188'
p615
aS'188'
p616
aS'188'
p617
aS'188'
p618
aS'188'
p619
aS'188'
p620
aS'188'
p621
aS'188'
p622
aS'188'
p623
aS'188'
p624
aS'188'
p625
aS'188'
p626
aS'188'
p627
aS'188'
p628
aS'188'
p629
aS'188'
p630
aS'188'
p631
aS'188'
p632
aS'188'
p633
aS'188'
p634
aS'188'
p635
aS'188'
p636
aS'188'
p637
aS'188'
p638
aS'188'
p639
aS'188'
p640
aS'188'
p641
aS'189'
p642
aS'189'
p643
aS'189'
p644
aS'189'
p645
aS'189'
p646
aS'189'
p647
aS'189'
p648
aS'189'
p649
aS'189'
p650
aS'189'
p651
aS'189'
p652
aS'189'
p653
aS'189'
p654
aS'189'
p655
aS'189'
p656
aS'189'
p657
aS'189'
p658
aS'189'
p659
aS'189'
p660
aS'189'
p661
aS'189'
p662
aS'189'
p663
aS'189'
p664
aS'189'
p665
aS'189'
p666
aS'189'
p667
aS'189'
p668
aS'189'
p669
aS'189'
p670
aS'189'
p671
aS'189'
p672
aS'189'
p673
aS'189'
p674
aS'189'
p675
aS'189'
p676
aS'189'
p677
aS'189'
p678
aS'189'
p679
aS'189'
p680
aS'189'
p681
aS'189'
p682
aS'189'
p683
aS'189'
p684
aS'189'
p685
aS'189'
p686
aS'189'
p687
aS'189'
p688
aS'189'
p689
aS'189'
p690
aS'189'
p691
aS'189'
p692
aS'189'
p693
aS'189'
p694
aS'189'
p695
aS'189'
p696
aS'189'
p697
aS'189'
p698
aS'189'
p699
aS'189'
p700
aS'189'
p701
aS'189'
p702
aS'189'
p703
aS'189'
p704
aS'189'
p705
aS'189'
p706
aS'189'
p707
aS'189'
p708
aS'189'
p709
aS'189'
p710
aS'189'
p711
aS'189'
p712
aS'189'
p713
aS'189'
p714
aS'189'
p715
aS'189'
p716
aS'189'
p717
aS'189'
p718
aS'189'
p719
aS'189'
p720
aS'189'
p721
aS'189'
p722
aS'189'
p723
aS'189'
p724
aS'189'
p725
aS'189'
p726
aS'189'
p727
aS'189'
p728
aS'189'
p729
aS'189'
p730
aS'189'
p731
aS'189'
p732
aS'189'
p733
aS'189'
p734
aS'189'
p735
aS'189'
p736
aS'189'
p737
aS'189'
p738
aS'189'
p739
aS'189'
p740
aS'190'
p741
aS'190'
p742
aS'190'
p743
aS'190'
p744
aS'190'
p745
aS'190'
p746
aS'190'
p747
aS'190'
p748
aS'190'
p749
aS'190'
p750
aS'190'
p751
aS'190'
p752
aS'190'
p753
aS'190'
p754
aS'190'
p755
aS'190'
p756
aS'190'
p757
aS'190'
p758
aS'190'
p759
aS'190'
p760
aS'190'
p761
aS'190'
p762
aS'190'
p763
aS'190'
p764
aS'190'
p765
aS'190'
p766
aS'190'
p767
aS'190'
p768
aS'190'
p769
aS'190'
p770
aS'190'
p771
aS'190'
p772
aS'190'
p773
aS'190'
p774
aS'190'
p775
aS'190'
p776
aS'190'
p777
aS'190'
p778
aS'190'
p779
aS'190'
p780
aS'190'
p781
aS'190'
p782
aS'190'
p783
aS'190'
p784
aS'190'
p785
aS'190'
p786
aS'190'
p787
aS'190'
p788
aS'190'
p789
aS'190'
p790
aS'190'
p791
aS'190'
p792
aS'190'
p793
aS'190'
p794
aS'191'
p795
aS'191'
p796
aS'191'
p797
aS'191'
p798
aS'191'
p799
aS'191'
p800
aS'191'
p801
aS'191'
p802
aS'191'
p803
aS'191'
p804
aS'191'
p805
aS'191'
p806
aS'191'
p807
aS'191'
p808
aS'191'
p809
aS'191'
p810
aS'191'
p811
aS'191'
p812
aS'191'
p813
aS'191'
p814
aS'191'
p815
aS'191'
p816
aS'191'
p817
aS'191'
p818
aS'191'
p819
aS'191'
p820
aS'191'
p821
aS'191'
p822
aS'191'
p823
aS'191'
p824
aS'191'
p825
aS'191'
p826
aS'191'
p827
aS'191'
p828
aS'191'
p829
aS'191'
p830
aS'191'
p831
aS'191'
p832
aS'191'
p833
aS'191'
p834
aS'191'
p835
aS'191'
p836
aS'191'
p837
aS'191'
p838
aS'191'
p839
aS'191'
p840
aS'191'
p841
aS'191'
p842
aS'191'
p843
aS'191'
p844
aS'191'
p845
aS'191'
p846
aS'191'
p847
aS'191'
p848
aS'191'
p849
aS'191'
p850
aS'191'
p851
aS'191'
p852
aS'191'
p853
aS'191'
p854
aS'191'
p855
aS'191'
p856
aS'191'
p857
aS'191'
p858
aS'191'
p859
aS'191'
p860
aS'191'
p861
aS'191'
p862
aS'191'
p863
aS'191'
p864
aS'191'
p865
aS'191'
p866
aS'191'
p867
aS'191'
p868
aS'191'
p869
aS'191'
p870
aS'191'
p871
aS'191'
p872
aS'191'
p873
aS'191'
p874
aS'191'
p875
aS'191'
p876
aS'191'
p877
aS'191'
p878
aS'191'
p879
aS'191'
p880
aS'191'
p881
aS'191'
p882
aS'191'
p883
aS'191'
p884
aS'191'
p885
aS'191'
p886
aS'191'
p887
aS'191'
p888
aS'191'
p889
aS'191'
p890
aS'191'
p891
aS'191'
p892
aS'191'
p893
aS'192'
p894
aS'192'
p895
aS'192'
p896
aS'192'
p897
aS'192'
p898
aS'192'
p899
aS'192'
p900
aS'192'
p901
aS'192'
p902
aS'192'
p903
aS'192'
p904
aS'192'
p905
aS'192'
p906
aS'192'
p907
aS'192'
p908
aS'192'
p909
aS'192'
p910
aS'192'
p911
aS'192'
p912
aS'192'
p913
aS'192'
p914
aS'192'
p915
aS'192'
p916
aS'192'
p917
aS'192'
p918
aS'192'
p919
aS'192'
p920
aS'192'
p921
aS'192'
p922
aS'192'
p923
aS'192'
p924
aS'192'
p925
aS'192'
p926
aS'192'
p927
aS'192'
p928
aS'192'
p929
aS'192'
p930
aS'192'
p931
aS'192'
p932
aS'192'
p933
aS'192'
p934
aS'192'
p935
aS'192'
p936
aS'192'
p937
aS'192'
p938
aS'192'
p939
aS'192'
p940
aS'192'
p941
aS'192'
p942
aS'192'
p943
aS'192'
p944
aS'192'
p945
aS'192'
p946
aS'192'
p947
aS'192'
p948
aS'192'
p949
aS'192'
p950
aS'192'
p951
aS'192'
p952
aS'192'
p953
aS'192'
p954
aS'192'
p955
aS'192'
p956
aS'192'
p957
aS'192'
p958
aS'192'
p959
aS'192'
p960
aS'192'
p961
aS'192'
p962
aS'192'
p963
aS'192'
p964
aS'192'
p965
aS'192'
p966
aS'192'
p967
aS'192'
p968
aS'192'
p969
aS'192'
p970
aS'192'
p971
aS'192'
p972
aS'192'
p973
aS'194'
p974
aS'194'
p975
aS'194'
p976
aS'194'
p977
aS'194'
p978
aS'194'
p979
aS'194'
p980
aS'194'
p981
aS'194'
p982
aS'194'
p983
aS'194'
p984
aS'194'
p985
aS'194'
p986
aS'194'
p987
aS'194'
p988
aS'194'
p989
aS'194'
p990
aS'194'
p991
aS'194'
p992
aS'194'
p993
aS'194'
p994
aS'194'
p995
aS'194'
p996
aS'194'
p997
aS'194'
p998
aS'194'
p999
aS'194'
p1000
aS'194'
p1001
aS'194'
p1002
aS'194'
p1003
aS'194'
p1004
aS'194'
p1005
aS'194'
p1006
aS'194'
p1007
aS'194'
p1008
aS'194'
p1009
aS'194'
p1010
aS'194'
p1011
aS'194'
p1012
aS'194'
p1013
aS'194'
p1014
aS'194'
p1015
aS'194'
p1016
aS'194'
p1017
aS'194'
p1018
aS'194'
p1019
aS'194'
p1020
aS'194'
p1021
aS'194'
p1022
aS'194'
p1023
aS'194'
p1024
aS'194'
p1025
aS'194'
p1026
aS'194'
p1027
aS'194'
p1028
aS'194'
p1029
aS'194'
p1030
aS'194'
p1031
aS'194'
p1032
aS'194'
p1033
aS'194'
p1034
aS'194'
p1035
aS'194'
p1036
aS'194'
p1037
aS'194'
p1038
aS'194'
p1039
aS'194'
p1040
aS'194'
p1041
aS'194'
p1042
aS'194'
p1043
aS'194'
p1044
aS'194'
p1045
aS'194'
p1046
aS'194'
p1047
aS'194'
p1048
aS'194'
p1049
aS'194'
p1050
aS'194'
p1051
aS'194'
p1052
aS'194'
p1053
aS'194'
p1054
aS'194'
p1055
aS'194'
p1056
aS'194'
p1057
aS'194'
p1058
aS'194'
p1059
aS'194'
p1060
aS'194'
p1061
aS'194'
p1062
aS'194'
p1063
aS'194'
p1064
aS'194'
p1065
aS'194'
p1066
aS'194'
p1067
aS'194'
p1068
aS'194'
p1069
aS'194'
p1070
aS'194'
p1071
aS'194'
p1072
aS'194'
p1073
aS'194'
p1074
aS'194'
p1075
aS'194'
p1076
aS'194'
p1077
aS'195'
p1078
aS'195'
p1079
aS'195'
p1080
aS'195'
p1081
aS'195'
p1082
aS'195'
p1083
aS'195'
p1084
aS'195'
p1085
aS'195'
p1086
aS'195'
p1087
aS'195'
p1088
aS'195'
p1089
aS'195'
p1090
aS'195'
p1091
aS'195'
p1092
aS'195'
p1093
aS'195'
p1094
aS'195'
p1095
aS'195'
p1096
aS'195'
p1097
aS'195'
p1098
aS'195'
p1099
aS'195'
p1100
aS'195'
p1101
aS'195'
p1102
aS'195'
p1103
aS'195'
p1104
aS'195'
p1105
aS'195'
p1106
aS'195'
p1107
aS'195'
p1108
aS'195'
p1109
aS'195'
p1110
aS'195'
p1111
aS'195'
p1112
aS'195'
p1113
aS'195'
p1114
aS'195'
p1115
aS'195'
p1116
aS'195'
p1117
aS'195'
p1118
aS'195'
p1119
aS'195'
p1120
aS'195'
p1121
aS'195'
p1122
aS'195'
p1123
aS'195'
p1124
aS'195'
p1125
aS'195'
p1126
aS'195'
p1127
aS'195'
p1128
aS'195'
p1129
aS'195'
p1130
aS'195'
p1131
aS'195'
p1132
aS'195'
p1133
aS'195'
p1134
aS'195'
p1135
aS'195'
p1136
aS'195'
p1137
aS'195'
p1138
aS'195'
p1139
aS'195'
p1140
aS'195'
p1141
aS'195'
p1142
aS'195'
p1143
aS'195'
p1144
aS'195'
p1145
aS'195'
p1146
aS'195'
p1147
aS'195'
p1148
aS'195'
p1149
aS'195'
p1150
aS'195'
p1151
aS'195'
p1152
aS'195'
p1153
aS'195'
p1154
aS'195'
p1155
aS'195'
p1156
aS'195'
p1157
aS'195'
p1158
aS'195'
p1159
aS'195'
p1160
aS'195'
p1161
aS'195'
p1162
aS'195'
p1163
aS'195'
p1164
aS'195'
p1165
aS'195'
p1166
aS'195'
p1167
aS'195'
p1168
aS'195'
p1169
aS'195'
p1170
aS'195'
p1171
aS'195'
p1172
aS'195'
p1173
aS'195'
p1174
aS'195'
p1175
aS'195'
p1176
aS'195'
p1177
aS'195'
p1178
aS'195'
p1179
aS'195'
p1180
aS'195'
p1181
aS'195'
p1182
aS'195'
p1183
aS'195'
p1184
aS'195'
p1185
aS'195'
p1186
aS'195'
p1187
aS'195'
p1188
aS'195'
p1189
aS'195'
p1190
aS'195'
p1191
aS'195'
p1192
aS'195'
p1193
aS'195'
p1194
aS'195'
p1195
aS'195'
p1196
aS'195'
p1197
aS'195'
p1198
aS'195'
p1199
aS'195'
p1200
aS'195'
p1201
aS'195'
p1202
aS'195'
p1203
aS'195'
p1204
aS'195'
p1205
aS'195'
p1206
aS'195'
p1207
aS'196'
p1208
aS'196'
p1209
aS'196'
p1210
aS'196'
p1211
aS'196'
p1212
aS'196'
p1213
aS'196'
p1214
aS'196'
p1215
aS'196'
p1216
aS'196'
p1217
aS'196'
p1218
aS'196'
p1219
aS'196'
p1220
aS'196'
p1221
aS'196'
p1222
aS'196'
p1223
aS'196'
p1224
aS'196'
p1225
aS'196'
p1226
aS'196'
p1227
aS'196'
p1228
aS'196'
p1229
aS'196'
p1230
aS'196'
p1231
aS'196'
p1232
aS'196'
p1233
aS'196'
p1234
aS'196'
p1235
aS'196'
p1236
aS'196'
p1237
aS'196'
p1238
aS'196'
p1239
aS'196'
p1240
aS'196'
p1241
aS'196'
p1242
aS'196'
p1243
aS'196'
p1244
aS'196'
p1245
aS'196'
p1246
aS'196'
p1247
aS'196'
p1248
aS'196'
p1249
aS'196'
p1250
aS'196'
p1251
aS'196'
p1252
aS'196'
p1253
aS'196'
p1254
aS'196'
p1255
aS'196'
p1256
aS'196'
p1257
aS'196'
p1258
aS'196'
p1259
aS'196'
p1260
aS'196'
p1261
aS'196'
p1262
aS'196'
p1263
aS'196'
p1264
aS'196'
p1265
aS'196'
p1266
aS'196'
p1267
aS'197'
p1268
aS'197'
p1269
aS'197'
p1270
aS'197'
p1271
aS'197'
p1272
aS'197'
p1273
aS'197'
p1274
aS'197'
p1275
aS'197'
p1276
aS'197'
p1277
aS'197'
p1278
aS'197'
p1279
aS'197'
p1280
aS'197'
p1281
aS'197'
p1282
aS'197'
p1283
aS'197'
p1284
aS'197'
p1285
aS'197'
p1286
aS'197'
p1287
aS'197'
p1288
aS'197'
p1289
aS'197'
p1290
aS'197'
p1291
aS'197'
p1292
aS'197'
p1293
aS'197'
p1294
aS'197'
p1295
aS'197'
p1296
aS'197'
p1297
aS'197'
p1298
aS'197'
p1299
aS'197'
p1300
aS'197'
p1301
aS'197'
p1302
aS'197'
p1303
aS'197'
p1304
aS'197'
p1305
aS'197'
p1306
aS'197'
p1307
aS'197'
p1308
aS'197'
p1309
aS'197'
p1310
aS'197'
p1311
aS'197'
p1312
aS'197'
p1313
aS'197'
p1314
aS'197'
p1315
aS'197'
p1316
aS'197'
p1317
aS'197'
p1318
aS'197'
p1319
aS'197'
p1320
aS'197'
p1321
aS'197'
p1322
aS'197'
p1323
aS'197'
p1324
aS'197'
p1325
aS'197'
p1326
aS'197'
p1327
aS'197'
p1328
aS'197'
p1329
aS'197'
p1330
aS'197'
p1331
aS'197'
p1332
aS'197'
p1333
aS'197'
p1334
aS'197'
p1335
aS'197'
p1336
aS'197'
p1337
aS'197'
p1338
aS'197'
p1339
aS'197'
p1340
aS'197'
p1341
aS'197'
p1342
aS'197'
p1343
aS'197'
p1344
aS'197'
p1345
aS'197'
p1346
aS'197'
p1347
aS'197'
p1348
aS'197'
p1349
aS'197'
p1350
aS'197'
p1351
aS'197'
p1352
aS'197'
p1353
aS'197'
p1354
aS'197'
p1355
aS'197'
p1356
aS'197'
p1357
aS'197'
p1358
aS'197'
p1359
aS'197'
p1360
aS'197'
p1361
aS'197'
p1362
aS'197'
p1363
aS'197'
p1364
aS'197'
p1365
aS'197'
p1366
aS'197'
p1367
aS'197'
p1368
aS'197'
p1369
aS'197'
p1370
aS'197'
p1371
aS'197'
p1372
aS'197'
p1373
aS'197'
p1374
aS'197'
p1375
aS'197'
p1376
aS'197'
p1377
aS'197'
p1378
aS'197'
p1379
aS'197'
p1380
aS'197'
p1381
aS'197'
p1382
aS'197'
p1383
aS'197'
p1384
aS'197'
p1385
aS'197'
p1386
aS'197'
p1387
aS'197'
p1388
aS'197'
p1389
aS'197'
p1390
aS'197'
p1391
aS'197'
p1392
aS'197'
p1393
aS'197'
p1394
aS'198'
p1395
aS'198'
p1396
aS'198'
p1397
aS'198'
p1398
aS'198'
p1399
aS'198'
p1400
aS'198'
p1401
aS'198'
p1402
aS'198'
p1403
aS'198'
p1404
aS'198'
p1405
aS'198'
p1406
aS'198'
p1407
aS'198'
p1408
aS'198'
p1409
aS'198'
p1410
aS'198'
p1411
aS'198'
p1412
aS'198'
p1413
aS'198'
p1414
aS'198'
p1415
aS'198'
p1416
aS'198'
p1417
aS'198'
p1418
aS'198'
p1419
aS'198'
p1420
aS'198'
p1421
aS'198'
p1422
aS'198'
p1423
aS'198'
p1424
aS'198'
p1425
aS'198'
p1426
aS'198'
p1427
aS'198'
p1428
aS'198'
p1429
aS'198'
p1430
aS'198'
p1431
aS'198'
p1432
aS'198'
p1433
aS'198'
p1434
aS'198'
p1435
aS'198'
p1436
aS'198'
p1437
aS'198'
p1438
aS'198'
p1439
aS'198'
p1440
aS'198'
p1441
aS'198'
p1442
aS'198'
p1443
aS'198'
p1444
aS'198'
p1445
aS'198'
p1446
aS'198'
p1447
aS'198'
p1448
aS'198'
p1449
aS'198'
p1450
aS'198'
p1451
aS'198'
p1452
aS'198'
p1453
aS'198'
p1454
aS'198'
p1455
aS'198'
p1456
aS'198'
p1457
aS'198'
p1458
aS'198'
p1459
aS'198'
p1460
aS'198'
p1461
aS'198'
p1462
aS'198'
p1463
aS'198'
p1464
aS'198'
p1465
aS'198'
p1466
aS'198'
p1467
aS'198'
p1468
aS'198'
p1469
aS'198'
p1470
aS'198'
p1471
aS'198'
p1472
aS'198'
p1473
aS'198'
p1474
aS'198'
p1475
aS'198'
p1476
aS'198'
p1477
aS'198'
p1478
aS'198'
p1479
aS'198'
p1480
aS'198'
p1481
aS'198'
p1482
aS'198'
p1483
aS'198'
p1484
aS'199'
p1485
aS'199'
p1486
aS'199'
p1487
aS'199'
p1488
aS'199'
p1489
aS'199'
p1490
aS'199'
p1491
aS'199'
p1492
aS'199'
p1493
aS'199'
p1494
aS'199'
p1495
aS'199'
p1496
aS'199'
p1497
aS'199'
p1498
aS'199'
p1499
aS'199'
p1500
aS'199'
p1501
aS'199'
p1502
aS'199'
p1503
aS'199'
p1504
aS'199'
p1505
aS'199'
p1506
aS'199'
p1507
aS'199'
p1508
aS'199'
p1509
aS'199'
p1510
aS'199'
p1511
aS'199'
p1512
aS'199'
p1513
aS'199'
p1514
aS'199'
p1515
aS'199'
p1516
aS'199'
p1517
aS'199'
p1518
aS'199'
p1519
aS'199'
p1520
aS'199'
p1521
aS'199'
p1522
aS'199'
p1523
aS'199'
p1524
aS'199'
p1525
aS'199'
p1526
aS'199'
p1527
aS'199'
p1528
aS'199'
p1529
aS'199'
p1530
aS'199'
p1531
aS'199'
p1532
aS'199'
p1533
aS'199'
p1534
aS'199'
p1535
aS'199'
p1536
aS'199'
p1537
aS'199'
p1538
aS'199'
p1539
aS'199'
p1540
aS'199'
p1541
aS'199'
p1542
aS'199'
p1543
aS'199'
p1544
aS'199'
p1545
aS'199'
p1546
aS'199'
p1547
aS'199'
p1548
aS'199'
p1549
aS'199'
p1550
aS'199'
p1551
aS'199'
p1552
aS'199'
p1553
aS'199'
p1554
aS'199'
p1555
aS'199'
p1556
aS'199'
p1557
aS'199'
p1558
aS'199'
p1559
aS'199'
p1560
aS'199'
p1561
aS'199'
p1562
aS'199'
p1563
aS'199'
p1564
aS'199'
p1565
aS'199'
p1566
aS'199'
p1567
aS'199'
p1568
aS'199'
p1569
aS'199'
p1570
aS'199'
p1571
aS'199'
p1572
aS'199'
p1573
aS'199'
p1574
aS'199'
p1575
aS'199'
p1576
aS'199'
p1577
aS'199'
p1578
aS'199'
p1579
aS'199'
p1580
aS'199'
p1581
aS'199'
p1582
aS'199'
p1583
aS'199'
p1584
aS'199'
p1585
aS'199'
p1586
aS'199'
p1587
aS'199'
p1588
aS'199'
p1589
aS'199'
p1590
aS'199'
p1591
aS'199'
p1592
aS'199'
p1593
aS'199'
p1594
aS'199'
p1595
aS'199'
p1596
aS'199'
p1597
aS'199'
p1598
aS'199'
p1599
aS'199'
p1600
aS'199'
p1601
aS'199'
p1602
aS'199'
p1603
aS'199'
p1604
aS'199'
p1605
aS'199'
p1606
aS'199'
p1607
aS'199'
p1608
aS'199'
p1609
aS'199'
p1610
aS'199'
p1611
aS'199'
p1612
aS'199'
p1613
aS'199'
p1614
aS'199'
p1615
aS'199'
p1616
aS'199'
p1617
aS'199'
p1618
aS'199'
p1619
aS'199'
p1620
aS'199'
p1621
aS'199'
p1622
aS'199'
p1623
aS'199'
p1624
aS'199'
p1625
aS'199'
p1626
aS'199'
p1627
aS'199'
p1628
aS'199'
p1629
aS'199'
p1630
aS'199'
p1631
aS'199'
p1632
aS'199'
p1633
aS'199'
p1634
aS'199'
p1635
aS'199'
p1636
aS'199'
p1637
aS'199'
p1638
aS'200'
p1639
aS'200'
p1640
aS'200'
p1641
aS'200'
p1642
aS'200'
p1643
aS'200'
p1644
aS'200'
p1645
aS'200'
p1646
aS'200'
p1647
aS'200'
p1648
aS'200'
p1649
aS'200'
p1650
aS'200'
p1651
aS'200'
p1652
aS'200'
p1653
aS'200'
p1654
aS'200'
p1655
aS'200'
p1656
aS'200'
p1657
aS'200'
p1658
aS'200'
p1659
aS'200'
p1660
aS'200'
p1661
aS'200'
p1662
aS'200'
p1663
aS'200'
p1664
aS'200'
p1665
aS'200'
p1666
aS'200'
p1667
aS'200'
p1668
aS'200'
p1669
aS'200'
p1670
aS'200'
p1671
aS'200'
p1672
aS'200'
p1673
aS'200'
p1674
aS'200'
p1675
aS'200'
p1676
aS'200'
p1677
aS'200'
p1678
aS'200'
p1679
aS'200'
p1680
aS'200'
p1681
aS'200'
p1682
aS'200'
p1683
aS'200'
p1684
aS'200'
p1685
aS'200'
p1686
aS'200'
p1687
aS'200'
p1688
aS'200'
p1689
aS'200'
p1690
aS'200'
p1691
aS'200'
p1692
aS'200'
p1693
aS'200'
p1694
aS'200'
p1695
aS'200'
p1696
aS'200'
p1697
aS'200'
p1698
aS'200'
p1699
aS'200'
p1700
aS'200'
p1701
aS'200'
p1702
aS'200'
p1703
aS'200'
p1704
aS'200'
p1705
aS'200'
p1706
aS'200'
p1707
aS'200'
p1708
aS'200'
p1709
aS'200'
p1710
aS'200'
p1711
aS'200'
p1712
aS'200'
p1713
aS'200'
p1714
aS'200'
p1715
aS'200'
p1716
aS'200'
p1717
aS'200'
p1718
aS'200'
p1719
aS'200'
p1720
aS'200'
p1721
aS'200'
p1722
aS'200'
p1723
aS'200'
p1724
aS'200'
p1725
aS'200'
p1726
aS'200'
p1727
aS'201'
p1728
aS'201'
p1729
aS'201'
p1730
aS'201'
p1731
aS'201'
p1732
aS'201'
p1733
aS'201'
p1734
aS'201'
p1735
aS'201'
p1736
aS'201'
p1737
aS'201'
p1738
aS'201'
p1739
aS'201'
p1740
aS'201'
p1741
aS'201'
p1742
aS'201'
p1743
aS'201'
p1744
aS'201'
p1745
aS'201'
p1746
aS'201'
p1747
aS'201'
p1748
aS'201'
p1749
aS'201'
p1750
aS'201'
p1751
aS'201'
p1752
aS'201'
p1753
aS'201'
p1754
aS'201'
p1755
aS'201'
p1756
aS'201'
p1757
aS'201'
p1758
aS'201'
p1759
aS'201'
p1760
aS'201'
p1761
aS'201'
p1762
aS'201'
p1763
aS'201'
p1764
aS'201'
p1765
aS'201'
p1766
aS'201'
p1767
aS'201'
p1768
aS'201'
p1769
aS'201'
p1770
aS'201'
p1771
aS'201'
p1772
aS'201'
p1773
aS'201'
p1774
aS'201'
p1775
aS'201'
p1776
aS'201'
p1777
aS'201'
p1778
aS'201'
p1779
aS'201'
p1780
aS'201'
p1781
aS'201'
p1782
aS'201'
p1783
aS'201'
p1784
aS'201'
p1785
aS'201'
p1786
aS'201'
p1787
aS'201'
p1788
aS'201'
p1789
aS'201'
p1790
aS'201'
p1791
aS'201'
p1792
aS'201'
p1793
aS'201'
p1794
aS'201'
p1795
aS'201'
p1796
aS'201'
p1797
aS'201'
p1798
aS'201'
p1799
aS'201'
p1800
aS'201'
p1801
aS'201'
p1802
aS'201'
p1803
aS'201'
p1804
aS'201'
p1805
aS'201'
p1806
aS'201'
p1807
aS'201'
p1808
aS'201'
p1809
aS'201'
p1810
aS'201'
p1811
aS'201'
p1812
aS'201'
p1813
aS'201'
p1814
aS'201'
p1815
aS'201'
p1816
aS'201'
p1817
aS'201'
p1818
aS'201'
p1819
aS'201'
p1820
aS'201'
p1821
aS'201'
p1822
aS'201'
p1823
aS'201'
p1824
aS'201'
p1825
aS'201'
p1826
aS'201'
p1827
aS'201'
p1828
aS'201'
p1829
aS'201'
p1830
aS'201'
p1831
aS'201'
p1832
aS'201'
p1833
aS'201'
p1834
aS'201'
p1835
aS'201'
p1836
aS'201'
p1837
aS'201'
p1838
aS'201'
p1839
aS'201'
p1840
aS'201'
p1841
aS'201'
p1842
aS'201'
p1843
aS'201'
p1844
aS'201'
p1845
aS'201'
p1846
aS'201'
p1847
aS'201'
p1848
aS'201'
p1849
aS'201'
p1850
aS'201'
p1851
aS'201'
p1852
aS'201'
p1853
aS'201'
p1854
aS'201'
p1855
aS'201'
p1856
aS'201'
p1857
aS'201'
p1858
aS'201'
p1859
aS'201'
p1860
aS'201'
p1861
aS'201'
p1862
aS'201'
p1863
aS'201'
p1864
aS'201'
p1865
aS'201'
p1866
aS'201'
p1867
aS'202'
p1868
aS'202'
p1869
aS'202'
p1870
aS'202'
p1871
aS'202'
p1872
aS'202'
p1873
aS'202'
p1874
aS'202'
p1875
aS'202'
p1876
aS'202'
p1877
aS'202'
p1878
aS'202'
p1879
aS'202'
p1880
aS'202'
p1881
aS'202'
p1882
aS'202'
p1883
aS'202'
p1884
aS'202'
p1885
aS'202'
p1886
aS'202'
p1887
aS'202'
p1888
aS'202'
p1889
aS'202'
p1890
aS'202'
p1891
aS'202'
p1892
aS'202'
p1893
aS'202'
p1894
aS'202'
p1895
aS'202'
p1896
aS'202'
p1897
aS'202'
p1898
aS'202'
p1899
aS'202'
p1900
aS'202'
p1901
aS'202'
p1902
aS'202'
p1903
aS'202'
p1904
aS'202'
p1905
aS'202'
p1906
aS'202'
p1907
aS'202'
p1908
aS'202'
p1909
aS'202'
p1910
aS'202'
p1911
aS'202'
p1912
aS'202'
p1913
aS'202'
p1914
aS'202'
p1915
aS'202'
p1916
aS'202'
p1917
aS'202'
p1918
aS'202'
p1919
aS'202'
p1920
aS'202'
p1921
aS'202'
p1922
aS'202'
p1923
aS'203'
p1924
aS'203'
p1925
aS'203'
p1926
aS'203'
p1927
aS'203'
p1928
aS'203'
p1929
aS'203'
p1930
aS'203'
p1931
aS'203'
p1932
aS'203'
p1933
aS'203'
p1934
aS'203'
p1935
aS'203'
p1936
aS'203'
p1937
aS'203'
p1938
aS'203'
p1939
aS'203'
p1940
aS'203'
p1941
aS'203'
p1942
aS'203'
p1943
aS'203'
p1944
aS'203'
p1945
aS'203'
p1946
aS'203'
p1947
aS'203'
p1948
aS'203'
p1949
aS'203'
p1950
aS'203'
p1951
aS'203'
p1952
aS'203'
p1953
aS'203'
p1954
aS'203'
p1955
aS'203'
p1956
aS'203'
p1957
aS'203'
p1958
aS'203'
p1959
aS'203'
p1960
aS'203'
p1961
aS'203'
p1962
aS'203'
p1963
aS'203'
p1964
aS'203'
p1965
aS'203'
p1966
aS'203'
p1967
aS'203'
p1968
aS'203'
p1969
aS'203'
p1970
aS'203'
p1971
aS'203'
p1972
aS'203'
p1973
aS'203'
p1974
aS'203'
p1975
aS'203'
p1976
aS'203'
p1977
aS'203'
p1978
aS'203'
p1979
aS'203'
p1980
aS'203'
p1981
aS'203'
p1982
aS'203'
p1983
aS'203'
p1984
aS'203'
p1985
aS'203'
p1986
aS'203'
p1987
aS'203'
p1988
aS'203'
p1989
aS'203'
p1990
aS'203'
p1991
aS'203'
p1992
aS'203'
p1993
aS'203'
p1994
aS'203'
p1995
aS'203'
p1996
aS'203'
p1997
aS'203'
p1998
aS'203'
p1999
aS'203'
p2000
aS'203'
p2001
aS'203'
p2002
aS'203'
p2003
aS'203'
p2004
aS'203'
p2005
aS'203'
p2006
aS'203'
p2007
aS'203'
p2008
aS'203'
p2009
aS'203'
p2010
aS'203'
p2011
aS'203'
p2012
aS'203'
p2013
aS'203'
p2014
aS'203'
p2015
aS'203'
p2016
aS'203'
p2017
aS'203'
p2018
aS'203'
p2019
aS'203'
p2020
aS'203'
p2021
aS'203'
p2022
aS'203'
p2023
aS'203'
p2024
aS'203'
p2025
aS'203'
p2026
aS'203'
p2027
aS'203'
p2028
aS'203'
p2029
aS'203'
p2030
aS'203'
p2031
aS'203'
p2032
aS'203'
p2033
aS'203'
p2034
aS'203'
p2035
aS'203'
p2036
aS'203'
p2037
aS'203'
p2038
aS'203'
p2039
aS'203'
p2040
aS'203'
p2041
aS'203'
p2042
aS'203'
p2043
aS'203'
p2044
aS'203'
p2045
aS'203'
p2046
aS'203'
p2047
aS'203'
p2048
aS'203'
p2049
aS'203'
p2050
aS'203'
p2051
aS'203'
p2052
aS'203'
p2053
aS'203'
p2054
aS'203'
p2055
aS'203'
p2056
aS'203'
p2057
aS'203'
p2058
aS'204'
p2059
aS'204'
p2060
aS'204'
p2061
aS'204'
p2062
aS'204'
p2063
aS'204'
p2064
aS'204'
p2065
aS'204'
p2066
aS'204'
p2067
aS'204'
p2068
aS'204'
p2069
aS'204'
p2070
aS'204'
p2071
aS'204'
p2072
aS'204'
p2073
aS'204'
p2074
aS'204'
p2075
aS'204'
p2076
aS'204'
p2077
aS'204'
p2078
aS'204'
p2079
aS'204'
p2080
aS'204'
p2081
aS'204'
p2082
aS'204'
p2083
aS'204'
p2084
aS'204'
p2085
aS'204'
p2086
aS'204'
p2087
aS'204'
p2088
aS'204'
p2089
aS'204'
p2090
aS'204'
p2091
aS'204'
p2092
aS'204'
p2093
aS'204'
p2094
aS'204'
p2095
aS'204'
p2096
aS'204'
p2097
aS'204'
p2098
aS'204'
p2099
aS'204'
p2100
aS'204'
p2101
aS'204'
p2102
aS'204'
p2103
aS'204'
p2104
aS'204'
p2105
aS'204'
p2106
aS'204'
p2107
aS'204'
p2108
aS'204'
p2109
aS'204'
p2110
aS'204'
p2111
aS'204'
p2112
aS'204'
p2113
aS'204'
p2114
aS'204'
p2115
aS'204'
p2116
aS'204'
p2117
aS'204'
p2118
aS'204'
p2119
aS'204'
p2120
aS'204'
p2121
aS'204'
p2122
aS'204'
p2123
aS'204'
p2124
aS'204'
p2125
aS'204'
p2126
aS'204'
p2127
aS'204'
p2128
aS'204'
p2129
aS'204'
p2130
aS'204'
p2131
aS'204'
p2132
aS'204'
p2133
aS'204'
p2134
aS'204'
p2135
aS'204'
p2136
aS'204'
p2137
aS'204'
p2138
aS'204'
p2139
aS'204'
p2140
aS'204'
p2141
aS'204'
p2142
aS'204'
p2143
aS'204'
p2144
aS'204'
p2145
aS'204'
p2146
aS'204'
p2147
aS'204'
p2148
aS'204'
p2149
aS'204'
p2150
aS'204'
p2151
aS'204'
p2152
aS'204'
p2153
aS'204'
p2154
aS'204'
p2155
aS'205'
p2156
aS'205'
p2157
aS'205'
p2158
aS'205'
p2159
aS'205'
p2160
aS'205'
p2161
aS'205'
p2162
aS'205'
p2163
aS'205'
p2164
aS'205'
p2165
aS'205'
p2166
aS'205'
p2167
aS'205'
p2168
aS'205'
p2169
aS'205'
p2170
aS'205'
p2171
aS'205'
p2172
aS'205'
p2173
aS'205'
p2174
aS'205'
p2175
aS'205'
p2176
aS'205'
p2177
aS'205'
p2178
aS'205'
p2179
aS'205'
p2180
aS'205'
p2181
aS'205'
p2182
aS'205'
p2183
aS'205'
p2184
aS'205'
p2185
aS'205'
p2186
aS'205'
p2187
aS'205'
p2188
aS'205'
p2189
aS'205'
p2190
aS'205'
p2191
aS'205'
p2192
aS'205'
p2193
aS'205'
p2194
aS'205'
p2195
aS'205'
p2196
aS'205'
p2197
aS'205'
p2198
aS'205'
p2199
aS'205'
p2200
aS'205'
p2201
aS'205'
p2202
aS'205'
p2203
aS'205'
p2204
aS'205'
p2205
aS'205'
p2206
aS'205'
p2207
aS'205'
p2208
aS'205'
p2209
aS'205'
p2210
aS'205'
p2211
aS'205'
p2212
aS'205'
p2213
aS'205'
p2214
aS'205'
p2215
aS'205'
p2216
aS'205'
p2217
aS'205'
p2218
aS'205'
p2219
aS'205'
p2220
aS'205'
p2221
aS'205'
p2222
aS'205'
p2223
aS'205'
p2224
aS'205'
p2225
aS'205'
p2226
aS'205'
p2227
aS'205'
p2228
aS'205'
p2229
aS'205'
p2230
aS'205'
p2231
aS'205'
p2232
aS'205'
p2233
aS'205'
p2234
aS'205'
p2235
aS'205'
p2236
aS'205'
p2237
aS'205'
p2238
aS'205'
p2239
aS'205'
p2240
aS'205'
p2241
aS'205'
p2242
aS'205'
p2243
aS'205'
p2244
aS'205'
p2245
aS'205'
p2246
aS'205'
p2247
aS'205'
p2248
aS'205'
p2249
aS'205'
p2250
aS'205'
p2251
aS'205'
p2252
aS'205'
p2253
aS'205'
p2254
aS'205'
p2255
aS'205'
p2256
aS'205'
p2257
aS'205'
p2258
aS'205'
p2259
aS'205'
p2260
aS'205'
p2261
aS'205'
p2262
aS'205'
p2263
aS'205'
p2264
aS'205'
p2265
aS'205'
p2266
aS'205'
p2267
aS'205'
p2268
aS'205'
p2269
aS'205'
p2270
aS'205'
p2271
aS'205'
p2272
aS'205'
p2273
aS'205'
p2274
aS'205'
p2275
aS'205'
p2276
aS'205'
p2277
aS'205'
p2278
aS'205'
p2279
aS'205'
p2280
aS'205'
p2281
aS'205'
p2282
aS'205'
p2283
aS'205'
p2284
aS'205'
p2285
aS'205'
p2286
aS'205'
p2287
aS'205'
p2288
aS'205'
p2289
aS'205'
p2290
aS'205'
p2291
aS'205'
p2292
aS'205'
p2293
aS'205'
p2294
aS'205'
p2295
aS'205'
p2296
aS'205'
p2297
aS'205'
p2298
aS'205'
p2299
aS'205'
p2300
aS'205'
p2301
aS'205'
p2302
aS'205'
p2303
aS'205'
p2304
aS'205'
p2305
aS'205'
p2306
aS'205'
p2307
aS'205'
p2308
aS'205'
p2309
aS'205'
p2310
aS'205'
p2311
aS'205'
p2312
aS'205'
p2313
aS'205'
p2314
aS'205'
p2315
aS'205'
p2316
aS'205'
p2317
aS'205'
p2318
aS'205'
p2319
aS'205'
p2320
aS'205'
p2321
aS'205'
p2322
aS'205'
p2323
aS'205'
p2324
aS'205'
p2325
aS'206'
p2326
aS'206'
p2327
aS'206'
p2328
aS'206'
p2329
aS'206'
p2330
aS'206'
p2331
aS'206'
p2332
aS'206'
p2333
aS'206'
p2334
aS'206'
p2335
aS'206'
p2336
aS'206'
p2337
aS'206'
p2338
aS'206'
p2339
aS'206'
p2340
aS'206'
p2341
aS'206'
p2342
aS'206'
p2343
aS'206'
p2344
aS'206'
p2345
aS'206'
p2346
aS'206'
p2347
aS'206'
p2348
aS'206'
p2349
aS'206'
p2350
aS'206'
p2351
aS'206'
p2352
aS'206'
p2353
aS'206'
p2354
aS'206'
p2355
aS'206'
p2356
aS'206'
p2357
aS'206'
p2358
aS'206'
p2359
aS'206'
p2360
aS'206'
p2361
aS'206'
p2362
aS'206'
p2363
aS'206'
p2364
aS'206'
p2365
aS'206'
p2366
aS'206'
p2367
aS'206'
p2368
aS'206'
p2369
aS'206'
p2370
aS'206'
p2371
aS'206'
p2372
aS'206'
p2373
aS'206'
p2374
aS'206'
p2375
aS'206'
p2376
aS'206'
p2377
aS'206'
p2378
aS'206'
p2379
aS'206'
p2380
aS'207'
p2381
aS'207'
p2382
aS'207'
p2383
aS'207'
p2384
aS'207'
p2385
aS'207'
p2386
aS'207'
p2387
aS'207'
p2388
aS'207'
p2389
aS'207'
p2390
aS'207'
p2391
aS'207'
p2392
aS'207'
p2393
aS'207'
p2394
aS'207'
p2395
aS'207'
p2396
aS'207'
p2397
aS'207'
p2398
aS'207'
p2399
aS'207'
p2400
aS'207'
p2401
aS'207'
p2402
aS'207'
p2403
aS'207'
p2404
aS'207'
p2405
aS'207'
p2406
aS'207'
p2407
aS'207'
p2408
aS'207'
p2409
aS'207'
p2410
aS'207'
p2411
aS'207'
p2412
aS'207'
p2413
aS'207'
p2414
aS'207'
p2415
aS'207'
p2416
aS'207'
p2417
aS'207'
p2418
aS'207'
p2419
aS'207'
p2420
aS'207'
p2421
aS'207'
p2422
aS'207'
p2423
aS'207'
p2424
aS'207'
p2425
aS'207'
p2426
aS'207'
p2427
aS'207'
p2428
aS'207'
p2429
aS'207'
p2430
aS'207'
p2431
aS'207'
p2432
aS'207'
p2433
aS'207'
p2434
aS'207'
p2435
aS'207'
p2436
aS'207'
p2437
aS'207'
p2438
aS'207'
p2439
aS'207'
p2440
aS'207'
p2441
aS'207'
p2442
aS'207'
p2443
aS'207'
p2444
aS'207'
p2445
aS'207'
p2446
aS'207'
p2447
aS'207'
p2448
aS'207'
p2449
aS'207'
p2450
aS'207'
p2451
aS'207'
p2452
aS'207'
p2453
aS'207'
p2454
aS'207'
p2455
aS'207'
p2456
aS'207'
p2457
aS'207'
p2458
aS'207'
p2459
aS'207'
p2460
aS'207'
p2461
aS'207'
p2462
aS'207'
p2463
aS'207'
p2464
aS'207'
p2465
aS'207'
p2466
aS'207'
p2467
aS'207'
p2468
aS'207'
p2469
aS'207'
p2470
aS'207'
p2471
aS'207'
p2472
aS'207'
p2473
aS'207'
p2474
aS'207'
p2475
aS'207'
p2476
aS'207'
p2477
aS'207'
p2478
aS'207'
p2479
aS'207'
p2480
aS'207'
p2481
aS'207'
p2482
aS'207'
p2483
aS'207'
p2484
aS'207'
p2485
aS'207'
p2486
aS'207'
p2487
aS'207'
p2488
aS'207'
p2489
aS'207'
p2490
aS'207'
p2491
aS'207'
p2492
aS'207'
p2493
aS'207'
p2494
aS'207'
p2495
aS'207'
p2496
aS'207'
p2497
aS'207'
p2498
aS'207'
p2499
aS'207'
p2500
aS'207'
p2501
aS'207'
p2502
aS'207'
p2503
aS'207'
p2504
aS'207'
p2505
aS'207'
p2506
aS'207'
p2507
aS'207'
p2508
aS'207'
p2509
aS'207'
p2510
aS'207'
p2511
aS'207'
p2512
aS'207'
p2513
aS'207'
p2514
aS'207'
p2515
aS'207'
p2516
aS'207'
p2517
aS'207'
p2518
aS'207'
p2519
aS'207'
p2520
aS'207'
p2521
aS'207'
p2522
aS'207'
p2523
aS'207'
p2524
aS'207'
p2525
aS'207'
p2526
aS'207'
p2527
aS'207'
p2528
aS'207'
p2529
aS'207'
p2530
aS'207'
p2531
aS'207'
p2532
aS'207'
p2533
aS'207'
p2534
aS'207'
p2535
aS'207'
p2536
aS'207'
p2537
aS'207'
p2538
aS'207'
p2539
aS'207'
p2540
aS'207'
p2541
aS'207'
p2542
aS'207'
p2543
aS'207'
p2544
aS'207'
p2545
aS'207'
p2546
aS'207'
p2547
aS'207'
p2548
aS'207'
p2549
aS'207'
p2550
aS'207'
p2551
aS'207'
p2552
aS'207'
p2553
aS'207'
p2554
aS'207'
p2555
aS'207'
p2556
aS'207'
p2557
aS'207'
p2558
aS'207'
p2559
aS'207'
p2560
aS'207'
p2561
aS'207'
p2562
aS'207'
p2563
aS'207'
p2564
aS'207'
p2565
aS'207'
p2566
aS'207'
p2567
aS'207'
p2568
aS'207'
p2569
aS'207'
p2570
aS'207'
p2571
aS'207'
p2572
aS'207'
p2573
aS'207'
p2574
aS'207'
p2575
aS'207'
p2576
aS'207'
p2577
aS'207'
p2578
aS'207'
p2579
aS'207'
p2580
aS'207'
p2581
aS'207'
p2582
aS'207'
p2583
aS'207'
p2584
aS'207'
p2585
aa(lp2586
S'1'
p2587
aS'2'
p2588
aS'3'
p2589
aS'4'
p2590
aS'5'
p2591
aS'6'
p2592
aS'7'
p2593
aS'8'
p2594
aS'9'
p2595
aS'10'
p2596
aS'11'
p2597
aS'12'
p2598
aS'13'
p2599
aS'14'
p2600
aS'15'
p2601
aS'16'
p2602
aS'17'
p2603
aS'18'
p2604
aS'19'
p2605
aS'20'
p2606
aS'21'
p2607
aS'22'
p2608
aS'23'
p2609
aS'24'
p2610
aS'25'
p2611
aS'26'
p2612
aS'27'
p2613
aS'28'
p2614
aS'29'
p2615
aS'30'
p2616
aS'31'
p2617
aS'32'
p2618
aS'33'
p2619
aS'34'
p2620
aS'35'
p2621
aS'36'
p2622
aS'37'
p2623
aS'38'
p2624
aS'39'
p2625
aS'40'
p2626
aS'41'
p2627
aS'42'
p2628
aS'43'
p2629
aS'44'
p2630
aS'45'
p2631
aS'46'
p2632
aS'47'
p2633
aS'48'
p2634
aS'49'
p2635
aS'50'
p2636
aS'51'
p2637
aS'52'
p2638
aS'53'
p2639
aS'54'
p2640
aS'55'
p2641
aS'56'
p2642
aS'57'
p2643
aS'58'
p2644
aS'59'
p2645
aS'60'
p2646
aS'61'
p2647
aS'62'
p2648
aS'63'
p2649
aS'64'
p2650
aS'65'
p2651
aS'66'
p2652
aS'67'
p2653
aS'68'
p2654
aS'69'
p2655
aS'70'
p2656
aS'71'
p2657
aS'72'
p2658
aS'73'
p2659
aS'74'
p2660
aS'75'
p2661
aS'76'
p2662
aS'77'
p2663
aS'78'
p2664
aS'79'
p2665
aS'80'
p2666
aS'81'
p2667
ag2587
ag2588
ag2589
ag2590
ag2591
ag2592
ag2593
ag2594
ag2595
aS'10'
p2668
aS'11'
p2669
aS'12'
p2670
aS'13'
p2671
aS'14'
p2672
aS'15'
p2673
aS'16'
p2674
aS'17'
p2675
aS'18'
p2676
aS'19'
p2677
aS'20'
p2678
aS'21'
p2679
aS'22'
p2680
aS'23'
p2681
aS'24'
p2682
aS'25'
p2683
aS'26'
p2684
aS'27'
p2685
aS'28'
p2686
aS'29'
p2687
aS'30'
p2688
aS'31'
p2689
aS'32'
p2690
aS'33'
p2691
aS'34'
p2692
aS'35'
p2693
aS'36'
p2694
aS'37'
p2695
aS'38'
p2696
aS'39'
p2697
aS'40'
p2698
aS'41'
p2699
aS'42'
p2700
aS'43'
p2701
aS'44'
p2702
aS'45'
p2703
aS'46'
p2704
aS'47'
p2705
aS'48'
p2706
aS'49'
p2707
aS'50'
p2708
aS'51'
p2709
aS'52'
p2710
aS'53'
p2711
aS'54'
p2712
aS'55'
p2713
aS'56'
p2714
aS'57'
p2715
aS'58'
p2716
aS'59'
p2717
aS'60'
p2718
aS'61'
p2719
aS'62'
p2720
aS'63'
p2721
aS'64'
p2722
aS'65'
p2723
aS'66'
p2724
aS'67'
p2725
aS'68'
p2726
aS'69'
p2727
aS'70'
p2728
aS'71'
p2729
aS'72'
p2730
aS'73'
p2731
aS'74'
p2732
aS'75'
p2733
aS'76'
p2734
aS'77'
p2735
aS'78'
p2736
aS'79'
p2737
aS'80'
p2738
aS'81'
p2739
aS'82'
p2740
aS'83'
p2741
aS'84'
p2742
aS'85'
p2743
aS'86'
p2744
aS'87'
p2745
aS'88'
p2746
aS'89'
p2747
aS'90'
p2748
aS'91'
p2749
aS'92'
p2750
aS'93'
p2751
aS'94'
p2752
aS'95'
p2753
aS'96'
p2754
aS'97'
p2755
aS'98'
p2756
aS'99'
p2757
aS'100'
p2758
aS'101'
p2759
aS'102'
p2760
aS'103'
p2761
aS'104'
p2762
aS'105'
p2763
aS'106'
p2764
aS'107'
p2765
aS'108'
p2766
aS'109'
p2767
aS'110'
p2768
aS'111'
p2769
aS'112'
p2770
aS'113'
p2771
aS'114'
p2772
aS'115'
p2773
aS'116'
p2774
aS'117'
p2775
aS'118'
p2776
aS'119'
p2777
aS'120'
p2778
aS'121'
p2779
aS'122'
p2780
aS'123'
p2781
aS'124'
p2782
aS'125'
p2783
ag2587
ag2588
ag2589
ag2590
ag2591
ag2592
ag2593
ag2594
ag2595
aS'10'
p2784
aS'11'
p2785
aS'12'
p2786
aS'13'
p2787
aS'14'
p2788
aS'15'
p2789
aS'16'
p2790
aS'17'
p2791
aS'18'
p2792
aS'19'
p2793
aS'20'
p2794
aS'21'
p2795
aS'22'
p2796
aS'23'
p2797
aS'24'
p2798
aS'25'
p2799
aS'26'
p2800
aS'27'
p2801
aS'28'
p2802
aS'29'
p2803
aS'30'
p2804
aS'31'
p2805
aS'32'
p2806
aS'33'
p2807
aS'34'
p2808
aS'35'
p2809
aS'36'
p2810
aS'37'
p2811
aS'38'
p2812
aS'39'
p2813
aS'40'
p2814
aS'41'
p2815
aS'42'
p2816
aS'43'
p2817
aS'44'
p2818
aS'45'
p2819
aS'46'
p2820
aS'47'
p2821
aS'48'
p2822
aS'49'
p2823
aS'50'
p2824
aS'51'
p2825
aS'52'
p2826
aS'53'
p2827
aS'54'
p2828
aS'55'
p2829
aS'56'
p2830
aS'57'
p2831
aS'58'
p2832
aS'59'
p2833
aS'60'
p2834
aS'61'
p2835
aS'62'
p2836
aS'63'
p2837
aS'64'
p2838
aS'65'
p2839
aS'66'
p2840
aS'67'
p2841
aS'68'
p2842
ag2587
ag2588
ag2589
ag2590
ag2591
ag2592
ag2593
ag2594
ag2595
aS'10'
p2843
aS'11'
p2844
aS'12'
p2845
aS'13'
p2846
aS'14'
p2847
aS'15'
p2848
aS'16'
p2849
aS'17'
p2850
aS'18'
p2851
aS'19'
p2852
aS'20'
p2853
aS'21'
p2854
aS'22'
p2855
aS'23'
p2856
aS'24'
p2857
aS'25'
p2858
aS'26'
p2859
aS'27'
p2860
aS'28'
p2861
aS'29'
p2862
aS'30'
p2863
aS'31'
p2864
aS'32'
p2865
aS'33'
p2866
aS'34'
p2867
aS'35'
p2868
aS'36'
p2869
aS'37'
p2870
aS'38'
p2871
aS'39'
p2872
aS'40'
p2873
aS'41'
p2874
aS'42'
p2875
aS'43'
p2876
aS'44'
p2877
aS'45'
p2878
aS'46'
p2879
aS'47'
p2880
aS'48'
p2881
aS'49'
p2882
aS'50'
p2883
aS'51'
p2884
aS'52'
p2885
aS'53'
p2886
aS'54'
p2887
aS'55'
p2888
aS'56'
p2889
aS'57'
p2890
aS'58'
p2891
aS'59'
p2892
aS'60'
p2893
aS'61'
p2894
aS'62'
p2895
aS'63'
p2896
aS'64'
p2897
aS'65'
p2898
aS'66'
p2899
aS'67'
p2900
aS'68'
p2901
aS'69'
p2902
aS'70'
p2903
aS'71'
p2904
aS'72'
p2905
aS'73'
p2906
aS'74'
p2907
aS'75'
p2908
aS'76'
p2909
aS'77'
p2910
aS'78'
p2911
aS'79'
p2912
aS'80'
p2913
aS'81'
p2914
aS'82'
p2915
aS'83'
p2916
aS'84'
p2917
aS'85'
p2918
aS'86'
p2919
aS'87'
p2920
aS'88'
p2921
aS'89'
p2922
aS'90'
p2923
aS'91'
p2924
aS'92'
p2925
aS'93'
p2926
aS'94'
p2927
aS'95'
p2928
aS'96'
p2929
aS'97'
p2930
aS'98'
p2931
aS'99'
p2932
aS'100'
p2933
aS'101'
p2934
aS'102'
p2935
aS'103'
p2936
aS'104'
p2937
aS'105'
p2938
aS'106'
p2939
aS'107'
p2940
aS'108'
p2941
aS'109'
p2942
aS'110'
p2943
aS'111'
p2944
aS'112'
p2945
aS'113'
p2946
aS'114'
p2947
aS'115'
p2948
aS'116'
p2949
aS'117'
p2950
aS'118'
p2951
aS'119'
p2952
aS'120'
p2953
aS'121'
p2954
aS'122'
p2955
aS'123'
p2956
ag2587
ag2588
ag2589
ag2590
ag2591
ag2592
ag2593
ag2594
ag2595
aS'10'
p2957
aS'11'
p2958
aS'12'
p2959
aS'13'
p2960
aS'14'
p2961
aS'15'
p2962
aS'16'
p2963
aS'17'
p2964
aS'18'
p2965
aS'19'
p2966
aS'20'
p2967
aS'21'
p2968
aS'22'
p2969
aS'23'
p2970
aS'24'
p2971
aS'25'
p2972
aS'26'
p2973
aS'27'
p2974
aS'28'
p2975
aS'29'
p2976
aS'30'
p2977
aS'31'
p2978
aS'32'
p2979
aS'33'
p2980
aS'34'
p2981
aS'35'
p2982
aS'36'
p2983
aS'37'
p2984
aS'38'
p2985
aS'39'
p2986
aS'40'
p2987
aS'41'
p2988
aS'42'
p2989
aS'43'
p2990
aS'44'
p2991
aS'45'
p2992
aS'46'
p2993
aS'47'
p2994
aS'48'
p2995
aS'49'
p2996
aS'50'
p2997
aS'51'
p2998
aS'52'
p2999
aS'53'
p3000
aS'54'
p3001
aS'55'
p3002
aS'56'
p3003
aS'57'
p3004
ag2587
ag2588
ag2589
ag2590
ag2591
ag2592
ag2593
ag2594
ag2595
aS'10'
p3005
aS'11'
p3006
aS'12'
p3007
aS'13'
p3008
aS'14'
p3009
aS'15'
p3010
aS'16'
p3011
aS'17'
p3012
aS'18'
p3013
aS'19'
p3014
aS'20'
p3015
aS'21'
p3016
aS'22'
p3017
aS'23'
p3018
aS'24'
p3019
aS'25'
p3020
aS'26'
p3021
aS'27'
p3022
aS'28'
p3023
aS'29'
p3024
aS'30'
p3025
aS'31'
p3026
aS'32'
p3027
aS'33'
p3028
aS'34'
p3029
aS'35'
p3030
aS'36'
p3031
aS'37'
p3032
aS'38'
p3033
aS'39'
p3034
aS'40'
p3035
aS'41'
p3036
aS'42'
p3037
aS'43'
p3038
aS'44'
p3039
aS'45'
p3040
aS'46'
p3041
aS'47'
p3042
aS'48'
p3043
aS'49'
p3044
aS'50'
p3045
aS'51'
p3046
aS'52'
p3047
aS'53'
p3048
aS'54'
p3049
aS'55'
p3050
aS'56'
p3051
aS'57'
p3052
aS'58'
p3053
aS'59'
p3054
aS'60'
p3055
aS'61'
p3056
aS'62'
p3057
aS'63'
p3058
aS'64'
p3059
aS'65'
p3060
aS'66'
p3061
aS'67'
p3062
aS'68'
p3063
aS'69'
p3064
aS'70'
p3065
aS'71'
p3066
aS'72'
p3067
aS'73'
p3068
aS'74'
p3069
aS'75'
p3070
aS'76'
p3071
aS'77'
p3072
aS'78'
p3073
aS'79'
p3074
aS'80'
p3075
aS'81'
p3076
aS'82'
p3077
aS'83'
p3078
aS'84'
p3079
aS'85'
p3080
aS'86'
p3081
aS'87'
p3082
aS'88'
p3083
aS'89'
p3084
aS'90'
p3085
aS'91'
p3086
aS'92'
p3087
aS'93'
p3088
aS'94'
p3089
aS'95'
p3090
aS'96'
p3091
aS'97'
p3092
aS'98'
p3093
aS'99'
p3094
ag2587
ag2588
ag2589
ag2590
ag2591
ag2592
ag2593
ag2594
ag2595
aS'10'
p3095
aS'11'
p3096
aS'12'
p3097
aS'13'
p3098
aS'14'
p3099
aS'15'
p3100
aS'16'
p3101
aS'17'
p3102
aS'18'
p3103
aS'19'
p3104
aS'20'
p3105
aS'21'
p3106
aS'22'
p3107
aS'23'
p3108
aS'24'
p3109
aS'25'
p3110
aS'26'
p3111
aS'27'
p3112
aS'28'
p3113
aS'29'
p3114
aS'30'
p3115
aS'31'
p3116
aS'32'
p3117
aS'33'
p3118
aS'34'
p3119
aS'35'
p3120
aS'36'
p3121
aS'37'
p3122
aS'38'
p3123
aS'39'
p3124
aS'40'
p3125
aS'41'
p3126
aS'42'
p3127
aS'43'
p3128
aS'44'
p3129
aS'45'
p3130
aS'46'
p3131
aS'47'
p3132
aS'48'
p3133
aS'49'
p3134
aS'50'
p3135
aS'51'
p3136
aS'52'
p3137
aS'53'
p3138
aS'54'
p3139
aS'55'
p3140
aS'56'
p3141
aS'57'
p3142
aS'58'
p3143
aS'59'
p3144
aS'60'
p3145
aS'61'
p3146
aS'62'
p3147
aS'63'
p3148
aS'64'
p3149
aS'65'
p3150
aS'66'
p3151
aS'67'
p3152
aS'68'
p3153
aS'69'
p3154
aS'70'
p3155
aS'71'
p3156
aS'72'
p3157
aS'73'
p3158
aS'74'
p3159
aS'75'
p3160
aS'76'
p3161
aS'77'
p3162
aS'78'
p3163
aS'79'
p3164
aS'80'
p3165
aS'81'
p3166
aS'82'
p3167
aS'83'
p3168
aS'84'
p3169
aS'85'
p3170
aS'86'
p3171
aS'87'
p3172
ag2587
ag2588
ag2589
ag2590
ag2591
ag2592
ag2593
ag2594
ag2595
aS'10'
p3173
aS'11'
p3174
aS'12'
p3175
aS'13'
p3176
aS'14'
p3177
aS'15'
p3178
aS'16'
p3179
aS'17'
p3180
aS'18'
p3181
aS'19'
p3182
aS'20'
p3183
aS'21'
p3184
aS'22'
p3185
aS'23'
p3186
aS'24'
p3187
aS'25'
p3188
aS'26'
p3189
aS'27'
p3190
aS'28'
p3191
aS'29'
p3192
aS'30'
p3193
aS'31'
p3194
aS'32'
p3195
aS'33'
p3196
aS'34'
p3197
aS'35'
p3198
aS'36'
p3199
aS'37'
p3200
aS'38'
p3201
aS'39'
p3202
aS'40'
p3203
aS'41'
p3204
aS'42'
p3205
aS'43'
p3206
aS'44'
p3207
aS'45'
p3208
aS'46'
p3209
aS'47'
p3210
aS'48'
p3211
aS'49'
p3212
aS'50'
p3213
aS'51'
p3214
aS'52'
p3215
aS'53'
p3216
aS'54'
p3217
aS'55'
p3218
aS'56'
p3219
aS'57'
p3220
aS'58'
p3221
aS'59'
p3222
aS'60'
p3223
aS'61'
p3224
aS'62'
p3225
aS'63'
p3226
aS'64'
p3227
aS'65'
p3228
aS'66'
p3229
aS'67'
p3230
aS'68'
p3231
aS'69'
p3232
aS'70'
p3233
aS'71'
p3234
aS'72'
p3235
aS'73'
p3236
aS'74'
p3237
aS'75'
p3238
aS'76'
p3239
aS'77'
p3240
aS'78'
p3241
aS'79'
p3242
aS'80'
p3243
aS'81'
p3244
aS'82'
p3245
aS'83'
p3246
aS'84'
p3247
aS'85'
p3248
aS'86'
p3249
aS'87'
p3250
aS'88'
p3251
aS'89'
p3252
aS'90'
p3253
aS'91'
p3254
aS'92'
p3255
aS'93'
p3256
aS'94'
p3257
aS'95'
p3258
aS'96'
p3259
aS'97'
p3260
aS'98'
p3261
aS'99'
p3262
ag2587
ag2588
ag2589
ag2590
ag2591
ag2592
ag2593
ag2594
ag2595
aS'10'
p3263
aS'11'
p3264
aS'12'
p3265
aS'13'
p3266
aS'14'
p3267
aS'15'
p3268
aS'16'
p3269
aS'17'
p3270
aS'18'
p3271
aS'19'
p3272
aS'20'
p3273
aS'21'
p3274
aS'22'
p3275
aS'23'
p3276
aS'24'
p3277
aS'25'
p3278
aS'26'
p3279
aS'27'
p3280
aS'28'
p3281
aS'29'
p3282
aS'30'
p3283
aS'31'
p3284
aS'32'
p3285
aS'33'
p3286
aS'34'
p3287
aS'35'
p3288
aS'36'
p3289
aS'37'
p3290
aS'38'
p3291
aS'39'
p3292
aS'40'
p3293
aS'41'
p3294
aS'42'
p3295
aS'43'
p3296
aS'44'
p3297
aS'45'
p3298
aS'46'
p3299
aS'47'
p3300
aS'48'
p3301
aS'49'
p3302
aS'50'
p3303
aS'51'
p3304
aS'52'
p3305
aS'53'
p3306
aS'54'
p3307
ag2587
ag2588
ag2589
ag2590
ag2591
ag2592
ag2593
ag2594
ag2595
aS'10'
p3308
aS'11'
p3309
aS'12'
p3310
aS'13'
p3311
aS'14'
p3312
aS'15'
p3313
aS'16'
p3314
aS'17'
p3315
aS'18'
p3316
aS'19'
p3317
aS'20'
p3318
aS'21'
p3319
aS'22'
p3320
aS'23'
p3321
aS'24'
p3322
aS'25'
p3323
aS'26'
p3324
aS'27'
p3325
aS'28'
p3326
aS'29'
p3327
aS'30'
p3328
aS'31'
p3329
aS'32'
p3330
aS'33'
p3331
aS'34'
p3332
aS'35'
p3333
aS'36'
p3334
aS'37'
p3335
aS'38'
p3336
aS'39'
p3337
aS'40'
p3338
aS'41'
p3339
aS'42'
p3340
aS'43'
p3341
aS'44'
p3342
aS'45'
p3343
aS'46'
p3344
aS'47'
p3345
aS'48'
p3346
aS'49'
p3347
aS'50'
p3348
aS'51'
p3349
aS'52'
p3350
aS'53'
p3351
aS'54'
p3352
aS'55'
p3353
aS'56'
p3354
aS'57'
p3355
aS'58'
p3356
aS'59'
p3357
aS'60'
p3358
aS'61'
p3359
aS'62'
p3360
aS'63'
p3361
aS'64'
p3362
aS'65'
p3363
aS'66'
p3364
aS'67'
p3365
aS'68'
p3366
aS'69'
p3367
aS'70'
p3368
aS'71'
p3369
aS'72'
p3370
aS'73'
p3371
aS'74'
p3372
aS'75'
p3373
aS'76'
p3374
aS'77'
p3375
aS'78'
p3376
aS'79'
p3377
aS'80'
p3378
aS'81'
p3379
aS'82'
p3380
aS'83'
p3381
aS'84'
p3382
aS'85'
p3383
aS'86'
p3384
aS'87'
p3385
aS'88'
p3386
aS'89'
p3387
aS'90'
p3388
aS'91'
p3389
aS'92'
p3390
aS'93'
p3391
aS'94'
p3392
aS'95'
p3393
aS'96'
p3394
aS'97'
p3395
aS'98'
p3396
aS'99'
p3397
ag2587
ag2588
ag2589
ag2590
ag2591
ag2592
ag2593
ag2594
ag2595
aS'10'
p3398
aS'11'
p3399
aS'12'
p3400
aS'13'
p3401
aS'14'
p3402
aS'15'
p3403
aS'16'
p3404
aS'17'
p3405
aS'18'
p3406
aS'19'
p3407
aS'20'
p3408
aS'21'
p3409
aS'22'
p3410
aS'23'
p3411
aS'24'
p3412
aS'25'
p3413
aS'26'
p3414
aS'27'
p3415
aS'28'
p3416
aS'29'
p3417
aS'30'
p3418
aS'31'
p3419
aS'32'
p3420
aS'33'
p3421
aS'34'
p3422
aS'35'
p3423
aS'36'
p3424
aS'37'
p3425
aS'38'
p3426
aS'39'
p3427
aS'40'
p3428
aS'41'
p3429
aS'42'
p3430
aS'43'
p3431
aS'44'
p3432
aS'45'
p3433
aS'46'
p3434
aS'47'
p3435
aS'48'
p3436
aS'49'
p3437
aS'50'
p3438
aS'51'
p3439
aS'52'
p3440
aS'53'
p3441
aS'54'
p3442
aS'55'
p3443
aS'56'
p3444
aS'57'
p3445
aS'58'
p3446
aS'59'
p3447
aS'60'
p3448
aS'61'
p3449
aS'62'
p3450
aS'63'
p3451
aS'64'
p3452
aS'65'
p3453
aS'66'
p3454
aS'67'
p3455
aS'68'
p3456
aS'69'
p3457
aS'70'
p3458
aS'71'
p3459
aS'72'
p3460
aS'73'
p3461
aS'74'
p3462
aS'75'
p3463
aS'76'
p3464
aS'77'
p3465
aS'78'
p3466
aS'79'
p3467
aS'80'
p3468
ag2587
ag2588
ag2589
ag2590
ag2591
ag2592
ag2593
ag2594
ag2595
aS'10'
p3469
aS'11'
p3470
aS'12'
p3471
aS'13'
p3472
aS'14'
p3473
aS'15'
p3474
aS'16'
p3475
aS'17'
p3476
aS'18'
p3477
aS'19'
p3478
aS'20'
p3479
aS'21'
p3480
aS'22'
p3481
aS'23'
p3482
aS'24'
p3483
aS'25'
p3484
aS'26'
p3485
aS'27'
p3486
aS'28'
p3487
aS'29'
p3488
aS'30'
p3489
aS'31'
p3490
aS'32'
p3491
aS'33'
p3492
aS'34'
p3493
aS'35'
p3494
aS'36'
p3495
aS'37'
p3496
aS'38'
p3497
aS'39'
p3498
aS'40'
p3499
aS'41'
p3500
aS'42'
p3501
aS'43'
p3502
aS'44'
p3503
aS'45'
p3504
aS'46'
p3505
aS'47'
p3506
aS'48'
p3507
aS'49'
p3508
aS'50'
p3509
aS'51'
p3510
aS'52'
p3511
aS'53'
p3512
aS'54'
p3513
aS'55'
p3514
aS'56'
p3515
aS'57'
p3516
aS'58'
p3517
aS'59'
p3518
aS'60'
p3519
aS'61'
p3520
aS'62'
p3521
aS'63'
p3522
aS'64'
p3523
aS'65'
p3524
aS'66'
p3525
aS'67'
p3526
aS'68'
p3527
aS'69'
p3528
aS'70'
p3529
aS'71'
p3530
aS'72'
p3531
aS'73'
p3532
aS'74'
p3533
aS'75'
p3534
aS'76'
p3535
aS'77'
p3536
aS'78'
p3537
aS'79'
p3538
aS'80'
p3539
aS'81'
p3540
aS'82'
p3541
aS'83'
p3542
aS'84'
p3543
aS'85'
p3544
aS'86'
p3545
aS'87'
p3546
aS'88'
p3547
aS'89'
p3548
aS'90'
p3549
aS'91'
p3550
aS'92'
p3551
aS'93'
p3552
aS'94'
p3553
aS'95'
p3554
aS'96'
p3555
aS'97'
p3556
aS'98'
p3557
aS'99'
p3558
aS'100'
p3559
aS'101'
p3560
aS'102'
p3561
aS'103'
p3562
aS'104'
p3563
ag2587
ag2588
ag2589
ag2590
ag2591
ag2592
ag2593
ag2594
ag2595
aS'10'
p3564
aS'11'
p3565
aS'12'
p3566
aS'13'
p3567
aS'14'
p3568
aS'15'
p3569
aS'16'
p3570
aS'17'
p3571
aS'18'
p3572
aS'19'
p3573
aS'20'
p3574
aS'21'
p3575
aS'22'
p3576
aS'23'
p3577
aS'24'
p3578
aS'25'
p3579
aS'26'
p3580
aS'27'
p3581
aS'28'
p3582
aS'29'
p3583
aS'30'
p3584
aS'31'
p3585
aS'32'
p3586
aS'33'
p3587
aS'34'
p3588
aS'35'
p3589
aS'36'
p3590
aS'37'
p3591
aS'38'
p3592
aS'39'
p3593
aS'40'
p3594
aS'41'
p3595
aS'42'
p3596
aS'43'
p3597
aS'44'
p3598
aS'45'
p3599
aS'46'
p3600
aS'47'
p3601
aS'48'
p3602
aS'49'
p3603
aS'50'
p3604
aS'51'
p3605
aS'52'
p3606
aS'53'
p3607
aS'54'
p3608
aS'55'
p3609
aS'56'
p3610
aS'57'
p3611
aS'58'
p3612
aS'59'
p3613
aS'60'
p3614
aS'61'
p3615
aS'62'
p3616
aS'63'
p3617
aS'64'
p3618
aS'65'
p3619
aS'66'
p3620
aS'67'
p3621
aS'68'
p3622
aS'69'
p3623
aS'70'
p3624
aS'71'
p3625
aS'72'
p3626
aS'73'
p3627
aS'74'
p3628
aS'75'
p3629
aS'76'
p3630
aS'77'
p3631
aS'78'
p3632
aS'79'
p3633
aS'80'
p3634
aS'81'
p3635
aS'82'
p3636
aS'83'
p3637
aS'84'
p3638
aS'85'
p3639
aS'86'
p3640
aS'87'
p3641
aS'88'
p3642
aS'89'
p3643
aS'90'
p3644
aS'91'
p3645
aS'92'
p3646
aS'93'
p3647
aS'94'
p3648
aS'95'
p3649
aS'96'
p3650
aS'97'
p3651
aS'98'
p3652
aS'99'
p3653
aS'100'
p3654
aS'101'
p3655
aS'102'
p3656
aS'103'
p3657
aS'104'
p3658
aS'105'
p3659
aS'106'
p3660
aS'107'
p3661
aS'108'
p3662
aS'109'
p3663
aS'110'
p3664
aS'111'
p3665
aS'112'
p3666
aS'113'
p3667
aS'114'
p3668
aS'115'
p3669
aS'116'
p3670
aS'117'
p3671
aS'118'
p3672
aS'119'
p3673
aS'120'
p3674
aS'121'
p3675
aS'122'
p3676
aS'123'
p3677
aS'124'
p3678
aS'125'
p3679
aS'126'
p3680
aS'127'
p3681
aS'128'
p3682
aS'129'
p3683
aS'130'
p3684
ag2587
ag2588
ag2589
ag2590
ag2591
ag2592
ag2593
ag2594
ag2595
aS'10'
p3685
aS'11'
p3686
aS'12'
p3687
aS'13'
p3688
aS'14'
p3689
aS'15'
p3690
aS'16'
p3691
aS'17'
p3692
aS'18'
p3693
aS'19'
p3694
aS'20'
p3695
aS'21'
p3696
aS'22'
p3697
aS'23'
p3698
aS'24'
p3699
aS'25'
p3700
aS'26'
p3701
aS'27'
p3702
aS'28'
p3703
aS'29'
p3704
aS'30'
p3705
aS'31'
p3706
aS'32'
p3707
aS'33'
p3708
aS'34'
p3709
aS'35'
p3710
aS'36'
p3711
aS'37'
p3712
aS'38'
p3713
aS'39'
p3714
aS'40'
p3715
aS'41'
p3716
aS'42'
p3717
aS'43'
p3718
aS'44'
p3719
aS'45'
p3720
aS'46'
p3721
aS'47'
p3722
aS'48'
p3723
aS'49'
p3724
aS'50'
p3725
aS'51'
p3726
aS'52'
p3727
aS'53'
p3728
aS'54'
p3729
aS'55'
p3730
aS'56'
p3731
aS'57'
p3732
aS'58'
p3733
aS'59'
p3734
aS'60'
p3735
ag2587
ag2588
ag2589
ag2590
ag2591
ag2592
ag2593
ag2594
ag2595
aS'10'
p3736
aS'11'
p3737
aS'12'
p3738
aS'13'
p3739
aS'14'
p3740
aS'15'
p3741
aS'16'
p3742
aS'17'
p3743
aS'18'
p3744
aS'19'
p3745
aS'20'
p3746
aS'21'
p3747
aS'22'
p3748
aS'23'
p3749
aS'24'
p3750
aS'25'
p3751
aS'26'
p3752
aS'27'
p3753
aS'28'
p3754
aS'29'
p3755
aS'30'
p3756
aS'31'
p3757
aS'32'
p3758
aS'33'
p3759
aS'34'
p3760
aS'35'
p3761
aS'36'
p3762
aS'37'
p3763
aS'38'
p3764
aS'39'
p3765
aS'40'
p3766
aS'41'
p3767
aS'42'
p3768
aS'43'
p3769
aS'44'
p3770
aS'45'
p3771
aS'46'
p3772
aS'47'
p3773
aS'48'
p3774
aS'49'
p3775
aS'50'
p3776
aS'51'
p3777
aS'52'
p3778
aS'53'
p3779
aS'54'
p3780
aS'55'
p3781
aS'56'
p3782
aS'57'
p3783
aS'58'
p3784
aS'59'
p3785
aS'60'
p3786
aS'61'
p3787
aS'62'
p3788
aS'63'
p3789
aS'64'
p3790
aS'65'
p3791
aS'66'
p3792
aS'67'
p3793
aS'68'
p3794
aS'69'
p3795
aS'70'
p3796
aS'71'
p3797
aS'72'
p3798
aS'73'
p3799
aS'74'
p3800
aS'75'
p3801
aS'76'
p3802
aS'77'
p3803
aS'78'
p3804
aS'79'
p3805
aS'80'
p3806
aS'81'
p3807
aS'82'
p3808
aS'83'
p3809
aS'84'
p3810
aS'85'
p3811
aS'86'
p3812
aS'87'
p3813
aS'88'
p3814
aS'89'
p3815
aS'90'
p3816
aS'91'
p3817
aS'92'
p3818
aS'93'
p3819
aS'94'
p3820
aS'95'
p3821
aS'96'
p3822
aS'97'
p3823
aS'98'
p3824
aS'99'
p3825
aS'100'
p3826
aS'101'
p3827
aS'102'
p3828
aS'103'
p3829
aS'104'
p3830
aS'105'
p3831
aS'106'
p3832
aS'107'
p3833
aS'108'
p3834
aS'109'
p3835
aS'110'
p3836
aS'111'
p3837
aS'112'
p3838
aS'113'
p3839
aS'114'
p3840
aS'115'
p3841
aS'116'
p3842
aS'117'
p3843
aS'118'
p3844
aS'119'
p3845
aS'120'
p3846
aS'121'
p3847
aS'122'
p3848
aS'123'
p3849
aS'124'
p3850
aS'125'
p3851
aS'126'
p3852
aS'127'
p3853
ag2587
ag2588
ag2589
ag2590
ag2591
ag2592
ag2593
ag2594
ag2595
aS'10'
p3854
aS'11'
p3855
aS'12'
p3856
aS'13'
p3857
aS'14'
p3858
aS'15'
p3859
aS'16'
p3860
aS'17'
p3861
aS'18'
p3862
aS'19'
p3863
aS'20'
p3864
aS'21'
p3865
aS'22'
p3866
aS'23'
p3867
aS'24'
p3868
aS'25'
p3869
aS'26'
p3870
aS'27'
p3871
aS'28'
p3872
aS'29'
p3873
aS'30'
p3874
aS'31'
p3875
aS'32'
p3876
aS'33'
p3877
aS'34'
p3878
aS'35'
p3879
aS'36'
p3880
aS'37'
p3881
aS'38'
p3882
aS'39'
p3883
aS'40'
p3884
aS'41'
p3885
aS'42'
p3886
aS'43'
p3887
aS'44'
p3888
aS'45'
p3889
aS'46'
p3890
aS'47'
p3891
aS'48'
p3892
aS'49'
p3893
aS'50'
p3894
aS'51'
p3895
aS'52'
p3896
aS'53'
p3897
aS'54'
p3898
aS'55'
p3899
aS'56'
p3900
aS'57'
p3901
aS'58'
p3902
aS'59'
p3903
aS'60'
p3904
aS'61'
p3905
aS'62'
p3906
aS'63'
p3907
aS'64'
p3908
aS'65'
p3909
aS'66'
p3910
aS'67'
p3911
aS'68'
p3912
aS'69'
p3913
aS'70'
p3914
aS'71'
p3915
aS'72'
p3916
aS'73'
p3917
aS'74'
p3918
aS'75'
p3919
aS'76'
p3920
aS'77'
p3921
aS'78'
p3922
aS'79'
p3923
aS'80'
p3924
aS'81'
p3925
aS'82'
p3926
aS'83'
p3927
aS'84'
p3928
aS'85'
p3929
aS'86'
p3930
aS'87'
p3931
aS'88'
p3932
aS'89'
p3933
aS'90'
p3934
ag2587
ag2588
ag2589
ag2590
ag2591
ag2592
ag2593
ag2594
ag2595
aS'10'
p3935
aS'11'
p3936
aS'12'
p3937
aS'13'
p3938
aS'14'
p3939
aS'15'
p3940
aS'16'
p3941
aS'17'
p3942
aS'18'
p3943
aS'19'
p3944
aS'20'
p3945
aS'21'
p3946
aS'22'
p3947
aS'23'
p3948
aS'24'
p3949
aS'25'
p3950
aS'26'
p3951
aS'27'
p3952
aS'28'
p3953
aS'29'
p3954
aS'30'
p3955
aS'31'
p3956
aS'32'
p3957
aS'33'
p3958
aS'34'
p3959
aS'35'
p3960
aS'36'
p3961
aS'37'
p3962
aS'38'
p3963
aS'39'
p3964
aS'40'
p3965
aS'41'
p3966
aS'42'
p3967
aS'43'
p3968
aS'44'
p3969
aS'45'
p3970
aS'46'
p3971
aS'47'
p3972
aS'48'
p3973
aS'49'
p3974
aS'50'
p3975
aS'51'
p3976
aS'52'
p3977
aS'53'
p3978
aS'54'
p3979
aS'55'
p3980
aS'56'
p3981
aS'57'
p3982
aS'58'
p3983
aS'59'
p3984
aS'60'
p3985
aS'61'
p3986
aS'62'
p3987
aS'63'
p3988
aS'64'
p3989
aS'65'
p3990
aS'66'
p3991
aS'67'
p3992
aS'68'
p3993
aS'69'
p3994
aS'70'
p3995
aS'71'
p3996
aS'72'
p3997
aS'73'
p3998
aS'74'
p3999
aS'75'
p4000
aS'76'
p4001
aS'77'
p4002
aS'78'
p4003
aS'79'
p4004
aS'80'
p4005
aS'81'
p4006
aS'82'
p4007
aS'83'
p4008
aS'84'
p4009
aS'85'
p4010
aS'86'
p4011
aS'87'
p4012
aS'88'
p4013
aS'89'
p4014
aS'90'
p4015
aS'91'
p4016
aS'92'
p4017
aS'93'
p4018
aS'94'
p4019
aS'95'
p4020
aS'96'
p4021
aS'97'
p4022
aS'98'
p4023
aS'99'
p4024
aS'100'
p4025
aS'101'
p4026
aS'102'
p4027
aS'103'
p4028
aS'104'
p4029
aS'105'
p4030
aS'106'
p4031
aS'107'
p4032
aS'108'
p4033
aS'109'
p4034
aS'110'
p4035
aS'111'
p4036
aS'112'
p4037
aS'113'
p4038
aS'114'
p4039
aS'115'
p4040
aS'116'
p4041
aS'117'
p4042
aS'118'
p4043
aS'119'
p4044
aS'120'
p4045
aS'121'
p4046
aS'122'
p4047
aS'123'
p4048
aS'124'
p4049
aS'125'
p4050
aS'126'
p4051
aS'127'
p4052
aS'128'
p4053
aS'129'
p4054
aS'130'
p4055
aS'131'
p4056
aS'132'
p4057
aS'133'
p4058
aS'134'
p4059
aS'135'
p4060
aS'136'
p4061
aS'137'
p4062
aS'138'
p4063
aS'139'
p4064
aS'140'
p4065
aS'141'
p4066
aS'142'
p4067
aS'143'
p4068
aS'144'
p4069
aS'145'
p4070
aS'146'
p4071
aS'147'
p4072
aS'148'
p4073
aS'149'
p4074
aS'150'
p4075
aS'151'
p4076
aS'152'
p4077
aS'153'
p4078
aS'154'
p4079
ag2587
ag2588
ag2589
ag2590
ag2591
ag2592
ag2593
ag2594
ag2595
aS'10'
p4080
aS'11'
p4081
aS'12'
p4082
aS'13'
p4083
aS'14'
p4084
aS'15'
p4085
aS'16'
p4086
aS'17'
p4087
aS'18'
p4088
aS'19'
p4089
aS'20'
p4090
aS'21'
p4091
aS'22'
p4092
aS'23'
p4093
aS'24'
p4094
aS'25'
p4095
aS'26'
p4096
aS'27'
p4097
aS'28'
p4098
aS'29'
p4099
aS'30'
p4100
aS'31'
p4101
aS'32'
p4102
aS'33'
p4103
aS'34'
p4104
aS'35'
p4105
aS'36'
p4106
aS'37'
p4107
aS'38'
p4108
aS'39'
p4109
aS'40'
p4110
aS'41'
p4111
aS'42'
p4112
aS'43'
p4113
aS'44'
p4114
aS'45'
p4115
aS'46'
p4116
aS'47'
p4117
aS'48'
p4118
aS'49'
p4119
aS'50'
p4120
aS'51'
p4121
aS'52'
p4122
aS'53'
p4123
aS'54'
p4124
aS'55'
p4125
aS'56'
p4126
aS'57'
p4127
aS'58'
p4128
aS'59'
p4129
aS'60'
p4130
aS'61'
p4131
aS'62'
p4132
aS'63'
p4133
aS'64'
p4134
aS'65'
p4135
aS'66'
p4136
aS'67'
p4137
aS'68'
p4138
aS'69'
p4139
aS'70'
p4140
aS'71'
p4141
aS'72'
p4142
aS'73'
p4143
aS'74'
p4144
aS'75'
p4145
aS'76'
p4146
aS'77'
p4147
aS'78'
p4148
aS'79'
p4149
aS'80'
p4150
aS'81'
p4151
aS'82'
p4152
aS'83'
p4153
aS'84'
p4154
aS'85'
p4155
aS'86'
p4156
aS'87'
p4157
aS'88'
p4158
aS'89'
p4159
ag2587
ag2588
ag2589
ag2590
ag2591
ag2592
ag2593
ag2594
ag2595
aS'10'
p4160
aS'11'
p4161
aS'12'
p4162
aS'13'
p4163
aS'14'
p4164
aS'15'
p4165
aS'16'
p4166
aS'17'
p4167
aS'18'
p4168
aS'19'
p4169
aS'20'
p4170
aS'21'
p4171
aS'22'
p4172
aS'23'
p4173
aS'24'
p4174
aS'25'
p4175
aS'26'
p4176
aS'27'
p4177
aS'28'
p4178
aS'29'
p4179
aS'30'
p4180
aS'31'
p4181
aS'32'
p4182
aS'33'
p4183
aS'34'
p4184
aS'35'
p4185
aS'36'
p4186
aS'37'
p4187
aS'38'
p4188
aS'39'
p4189
aS'40'
p4190
aS'41'
p4191
aS'42'
p4192
aS'43'
p4193
aS'44'
p4194
aS'45'
p4195
aS'46'
p4196
aS'47'
p4197
aS'48'
p4198
aS'49'
p4199
aS'50'
p4200
aS'51'
p4201
aS'52'
p4202
aS'53'
p4203
aS'54'
p4204
aS'55'
p4205
aS'56'
p4206
aS'57'
p4207
aS'58'
p4208
aS'59'
p4209
aS'60'
p4210
aS'61'
p4211
aS'62'
p4212
aS'63'
p4213
aS'64'
p4214
aS'65'
p4215
aS'66'
p4216
aS'67'
p4217
aS'68'
p4218
aS'69'
p4219
aS'70'
p4220
aS'71'
p4221
aS'72'
p4222
aS'73'
p4223
aS'74'
p4224
aS'75'
p4225
aS'76'
p4226
aS'77'
p4227
aS'78'
p4228
aS'79'
p4229
aS'80'
p4230
aS'81'
p4231
aS'82'
p4232
aS'83'
p4233
aS'84'
p4234
aS'85'
p4235
aS'86'
p4236
aS'87'
p4237
aS'88'
p4238
aS'89'
p4239
aS'90'
p4240
aS'91'
p4241
aS'92'
p4242
aS'93'
p4243
aS'94'
p4244
aS'95'
p4245
aS'96'
p4246
aS'97'
p4247
aS'98'
p4248
aS'99'
p4249
aS'100'
p4250
aS'101'
p4251
aS'102'
p4252
aS'103'
p4253
aS'104'
p4254
aS'105'
p4255
aS'106'
p4256
aS'107'
p4257
aS'108'
p4258
aS'109'
p4259
aS'110'
p4260
aS'111'
p4261
aS'112'
p4262
aS'113'
p4263
aS'114'
p4264
aS'115'
p4265
aS'116'
p4266
aS'117'
p4267
aS'118'
p4268
aS'119'
p4269
aS'120'
p4270
aS'121'
p4271
aS'122'
p4272
aS'123'
p4273
aS'124'
p4274
aS'125'
p4275
aS'126'
p4276
aS'127'
p4277
aS'128'
p4278
aS'129'
p4279
aS'130'
p4280
aS'131'
p4281
aS'132'
p4282
aS'133'
p4283
aS'134'
p4284
aS'135'
p4285
aS'136'
p4286
aS'137'
p4287
aS'138'
p4288
aS'139'
p4289
aS'140'
p4290
ag2587
ag2588
ag2589
ag2590
ag2591
ag2592
ag2593
ag2594
ag2595
aS'10'
p4291
aS'11'
p4292
aS'12'
p4293
aS'13'
p4294
aS'14'
p4295
aS'15'
p4296
aS'16'
p4297
aS'17'
p4298
aS'18'
p4299
aS'19'
p4300
aS'20'
p4301
aS'21'
p4302
aS'22'
p4303
aS'23'
p4304
aS'24'
p4305
aS'25'
p4306
aS'26'
p4307
aS'27'
p4308
aS'28'
p4309
aS'29'
p4310
aS'30'
p4311
aS'31'
p4312
aS'32'
p4313
aS'33'
p4314
aS'34'
p4315
aS'35'
p4316
aS'36'
p4317
aS'37'
p4318
aS'38'
p4319
aS'39'
p4320
aS'40'
p4321
aS'41'
p4322
aS'42'
p4323
aS'43'
p4324
aS'44'
p4325
aS'45'
p4326
aS'46'
p4327
aS'47'
p4328
aS'48'
p4329
aS'49'
p4330
aS'50'
p4331
aS'51'
p4332
aS'52'
p4333
aS'53'
p4334
aS'54'
p4335
aS'55'
p4336
aS'56'
p4337
ag2587
ag2588
ag2589
ag2590
ag2591
ag2592
ag2593
ag2594
ag2595
aS'10'
p4338
aS'11'
p4339
aS'12'
p4340
aS'13'
p4341
aS'14'
p4342
aS'15'
p4343
aS'16'
p4344
aS'17'
p4345
aS'18'
p4346
aS'19'
p4347
aS'20'
p4348
aS'21'
p4349
aS'22'
p4350
aS'23'
p4351
aS'24'
p4352
aS'25'
p4353
aS'26'
p4354
aS'27'
p4355
aS'28'
p4356
aS'29'
p4357
aS'30'
p4358
aS'31'
p4359
aS'32'
p4360
aS'33'
p4361
aS'34'
p4362
aS'35'
p4363
aS'36'
p4364
aS'37'
p4365
aS'38'
p4366
aS'39'
p4367
aS'40'
p4368
aS'41'
p4369
aS'42'
p4370
aS'43'
p4371
aS'44'
p4372
aS'45'
p4373
aS'46'
p4374
aS'47'
p4375
aS'48'
p4376
aS'49'
p4377
aS'50'
p4378
aS'51'
p4379
aS'52'
p4380
aS'53'
p4381
aS'54'
p4382
aS'55'
p4383
aS'56'
p4384
aS'57'
p4385
aS'58'
p4386
aS'59'
p4387
aS'60'
p4388
aS'61'
p4389
aS'62'
p4390
aS'63'
p4391
aS'64'
p4392
aS'65'
p4393
aS'66'
p4394
aS'67'
p4395
aS'68'
p4396
aS'69'
p4397
aS'70'
p4398
aS'71'
p4399
aS'72'
p4400
aS'73'
p4401
aS'74'
p4402
aS'75'
p4403
aS'76'
p4404
aS'77'
p4405
aS'78'
p4406
aS'79'
p4407
aS'80'
p4408
aS'81'
p4409
aS'82'
p4410
aS'83'
p4411
aS'84'
p4412
aS'85'
p4413
aS'86'
p4414
aS'87'
p4415
aS'88'
p4416
aS'89'
p4417
aS'90'
p4418
aS'91'
p4419
aS'92'
p4420
aS'93'
p4421
aS'94'
p4422
aS'95'
p4423
aS'96'
p4424
aS'97'
p4425
aS'98'
p4426
aS'99'
p4427
aS'100'
p4428
aS'101'
p4429
aS'102'
p4430
aS'103'
p4431
aS'104'
p4432
aS'105'
p4433
aS'106'
p4434
aS'107'
p4435
aS'108'
p4436
aS'109'
p4437
aS'110'
p4438
aS'111'
p4439
aS'112'
p4440
aS'113'
p4441
aS'114'
p4442
aS'115'
p4443
aS'116'
p4444
aS'117'
p4445
aS'118'
p4446
aS'119'
p4447
aS'120'
p4448
aS'121'
p4449
aS'122'
p4450
aS'123'
p4451
aS'124'
p4452
aS'125'
p4453
aS'126'
p4454
aS'127'
p4455
aS'128'
p4456
aS'129'
p4457
aS'130'
p4458
aS'131'
p4459
aS'132'
p4460
aS'133'
p4461
aS'134'
p4462
aS'135'
p4463
ag2587
ag2588
ag2589
ag2590
ag2591
ag2592
ag2593
ag2594
ag2595
aS'10'
p4464
aS'11'
p4465
aS'12'
p4466
aS'13'
p4467
aS'14'
p4468
aS'15'
p4469
aS'16'
p4470
aS'17'
p4471
aS'18'
p4472
aS'19'
p4473
aS'20'
p4474
aS'21'
p4475
aS'22'
p4476
aS'23'
p4477
aS'24'
p4478
aS'25'
p4479
aS'26'
p4480
aS'27'
p4481
aS'28'
p4482
aS'29'
p4483
aS'30'
p4484
aS'31'
p4485
aS'32'
p4486
aS'33'
p4487
aS'34'
p4488
aS'35'
p4489
aS'36'
p4490
aS'37'
p4491
aS'38'
p4492
aS'39'
p4493
aS'40'
p4494
aS'41'
p4495
aS'42'
p4496
aS'43'
p4497
aS'44'
p4498
aS'45'
p4499
aS'46'
p4500
aS'47'
p4501
aS'48'
p4502
aS'49'
p4503
aS'50'
p4504
aS'51'
p4505
aS'52'
p4506
aS'53'
p4507
aS'54'
p4508
aS'55'
p4509
aS'56'
p4510
aS'57'
p4511
aS'58'
p4512
aS'59'
p4513
aS'60'
p4514
aS'61'
p4515
aS'62'
p4516
aS'63'
p4517
aS'64'
p4518
aS'65'
p4519
aS'66'
p4520
aS'67'
p4521
aS'68'
p4522
aS'69'
p4523
aS'70'
p4524
aS'71'
p4525
aS'72'
p4526
aS'73'
p4527
aS'74'
p4528
aS'75'
p4529
aS'76'
p4530
aS'77'
p4531
aS'78'
p4532
aS'79'
p4533
aS'80'
p4534
aS'81'
p4535
aS'82'
p4536
aS'83'
p4537
aS'84'
p4538
aS'85'
p4539
aS'86'
p4540
aS'87'
p4541
aS'88'
p4542
aS'89'
p4543
aS'90'
p4544
aS'91'
p4545
aS'92'
p4546
aS'93'
p4547
aS'94'
p4548
aS'95'
p4549
aS'96'
p4550
aS'97'
p4551
ag2587
ag2588
ag2589
ag2590
ag2591
ag2592
ag2593
ag2594
ag2595
aS'10'
p4552
aS'11'
p4553
aS'12'
p4554
aS'13'
p4555
aS'14'
p4556
aS'15'
p4557
aS'16'
p4558
aS'17'
p4559
aS'18'
p4560
aS'19'
p4561
aS'20'
p4562
aS'21'
p4563
aS'22'
p4564
aS'23'
p4565
aS'24'
p4566
aS'25'
p4567
aS'26'
p4568
aS'27'
p4569
aS'28'
p4570
aS'29'
p4571
aS'30'
p4572
aS'31'
p4573
aS'32'
p4574
aS'33'
p4575
aS'34'
p4576
aS'35'
p4577
aS'36'
p4578
aS'37'
p4579
aS'38'
p4580
aS'39'
p4581
aS'40'
p4582
aS'41'
p4583
aS'42'
p4584
aS'43'
p4585
aS'44'
p4586
aS'45'
p4587
aS'46'
p4588
aS'47'
p4589
aS'48'
p4590
aS'49'
p4591
aS'50'
p4592
aS'51'
p4593
aS'52'
p4594
aS'53'
p4595
aS'54'
p4596
aS'55'
p4597
aS'56'
p4598
aS'57'
p4599
aS'58'
p4600
aS'59'
p4601
aS'60'
p4602
aS'61'
p4603
aS'62'
p4604
aS'63'
p4605
aS'64'
p4606
aS'65'
p4607
aS'66'
p4608
aS'67'
p4609
aS'68'
p4610
aS'69'
p4611
aS'70'
p4612
aS'71'
p4613
aS'72'
p4614
aS'73'
p4615
aS'74'
p4616
aS'75'
p4617
aS'76'
p4618
aS'77'
p4619
aS'78'
p4620
aS'79'
p4621
aS'80'
p4622
aS'81'
p4623
aS'82'
p4624
aS'83'
p4625
aS'84'
p4626
aS'85'
p4627
aS'86'
p4628
aS'87'
p4629
aS'88'
p4630
aS'89'
p4631
aS'90'
p4632
aS'91'
p4633
aS'92'
p4634
aS'93'
p4635
aS'94'
p4636
aS'95'
p4637
aS'96'
p4638
aS'97'
p4639
aS'98'
p4640
aS'99'
p4641
aS'100'
p4642
aS'101'
p4643
aS'102'
p4644
aS'103'
p4645
aS'104'
p4646
aS'105'
p4647
aS'106'
p4648
aS'107'
p4649
aS'108'
p4650
aS'109'
p4651
aS'110'
p4652
aS'111'
p4653
aS'112'
p4654
aS'113'
p4655
aS'114'
p4656
aS'115'
p4657
aS'116'
p4658
aS'117'
p4659
aS'118'
p4660
aS'119'
p4661
aS'120'
p4662
aS'121'
p4663
aS'122'
p4664
aS'123'
p4665
aS'124'
p4666
aS'125'
p4667
aS'126'
p4668
aS'127'
p4669
aS'128'
p4670
aS'129'
p4671
aS'130'
p4672
aS'131'
p4673
aS'132'
p4674
aS'133'
p4675
aS'134'
p4676
aS'135'
p4677
aS'136'
p4678
aS'137'
p4679
aS'138'
p4680
aS'139'
p4681
aS'140'
p4682
aS'141'
p4683
aS'142'
p4684
aS'143'
p4685
aS'144'
p4686
aS'145'
p4687
aS'146'
p4688
aS'147'
p4689
aS'148'
p4690
aS'149'
p4691
aS'150'
p4692
aS'151'
p4693
aS'152'
p4694
aS'153'
p4695
aS'154'
p4696
aS'155'
p4697
aS'156'
p4698
aS'157'
p4699
aS'158'
p4700
aS'159'
p4701
aS'160'
p4702
aS'161'
p4703
aS'162'
p4704
aS'163'
p4705
aS'164'
p4706
aS'165'
p4707
aS'166'
p4708
aS'167'
p4709
aS'168'
p4710
aS'169'
p4711
aS'170'
p4712
ag2587
ag2588
ag2589
ag2590
ag2591
ag2592
ag2593
ag2594
ag2595
aS'10'
p4713
aS'11'
p4714
aS'12'
p4715
aS'13'
p4716
aS'14'
p4717
aS'15'
p4718
aS'16'
p4719
aS'17'
p4720
aS'18'
p4721
aS'19'
p4722
aS'20'
p4723
aS'21'
p4724
aS'22'
p4725
aS'23'
p4726
aS'24'
p4727
aS'25'
p4728
aS'26'
p4729
aS'27'
p4730
aS'28'
p4731
aS'29'
p4732
aS'30'
p4733
aS'31'
p4734
aS'32'
p4735
aS'33'
p4736
aS'34'
p4737
aS'35'
p4738
aS'36'
p4739
aS'37'
p4740
aS'38'
p4741
aS'39'
p4742
aS'40'
p4743
aS'41'
p4744
aS'42'
p4745
aS'43'
p4746
aS'44'
p4747
aS'45'
p4748
aS'46'
p4749
aS'47'
p4750
aS'48'
p4751
aS'49'
p4752
aS'50'
p4753
aS'51'
p4754
aS'52'
p4755
aS'53'
p4756
aS'54'
p4757
aS'55'
p4758
ag2587
ag2588
ag2589
ag2590
ag2591
ag2592
ag2593
ag2594
ag2595
aS'10'
p4759
aS'11'
p4760
aS'12'
p4761
aS'13'
p4762
aS'14'
p4763
aS'15'
p4764
aS'16'
p4765
aS'17'
p4766
aS'18'
p4767
aS'19'
p4768
aS'20'
p4769
aS'21'
p4770
aS'22'
p4771
aS'23'
p4772
aS'24'
p4773
aS'25'
p4774
aS'26'
p4775
aS'27'
p4776
aS'28'
p4777
aS'29'
p4778
aS'30'
p4779
aS'31'
p4780
aS'32'
p4781
aS'33'
p4782
aS'34'
p4783
aS'35'
p4784
aS'36'
p4785
aS'37'
p4786
aS'38'
p4787
aS'39'
p4788
aS'40'
p4789
aS'41'
p4790
aS'42'
p4791
aS'43'
p4792
aS'44'
p4793
aS'45'
p4794
aS'46'
p4795
aS'47'
p4796
aS'48'
p4797
aS'49'
p4798
aS'50'
p4799
aS'51'
p4800
aS'52'
p4801
aS'53'
p4802
aS'54'
p4803
aS'55'
p4804
aS'56'
p4805
aS'57'
p4806
aS'58'
p4807
aS'59'
p4808
aS'60'
p4809
aS'61'
p4810
aS'62'
p4811
aS'63'
p4812
aS'64'
p4813
aS'65'
p4814
aS'66'
p4815
aS'67'
p4816
aS'68'
p4817
aS'69'
p4818
aS'70'
p4819
aS'71'
p4820
aS'72'
p4821
aS'73'
p4822
aS'74'
p4823
aS'75'
p4824
aS'76'
p4825
aS'77'
p4826
aS'78'
p4827
aS'79'
p4828
aS'80'
p4829
aS'81'
p4830
aS'82'
p4831
aS'83'
p4832
aS'84'
p4833
aS'85'
p4834
aS'86'
p4835
aS'87'
p4836
aS'88'
p4837
aS'89'
p4838
aS'90'
p4839
aS'91'
p4840
aS'92'
p4841
aS'93'
p4842
aS'94'
p4843
aS'95'
p4844
aS'96'
p4845
aS'97'
p4846
aS'98'
p4847
aS'99'
p4848
aS'100'
p4849
aS'101'
p4850
aS'102'
p4851
aS'103'
p4852
aS'104'
p4853
aS'105'
p4854
aS'106'
p4855
aS'107'
p4856
aS'108'
p4857
aS'109'
p4858
aS'110'
p4859
aS'111'
p4860
aS'112'
p4861
aS'113'
p4862
aS'114'
p4863
aS'115'
p4864
aS'116'
p4865
aS'117'
p4866
aS'118'
p4867
aS'119'
p4868
aS'120'
p4869
aS'121'
p4870
aS'122'
p4871
aS'123'
p4872
aS'124'
p4873
aS'125'
p4874
aS'126'
p4875
aS'127'
p4876
aS'128'
p4877
aS'129'
p4878
aS'130'
p4879
aS'131'
p4880
aS'132'
p4881
aS'133'
p4882
aS'134'
p4883
aS'135'
p4884
aS'136'
p4885
aS'137'
p4886
aS'138'
p4887
aS'139'
p4888
aS'140'
p4889
aS'141'
p4890
aS'142'
p4891
aS'143'
p4892
aS'144'
p4893
aS'145'
p4894
aS'146'
p4895
aS'147'
p4896
aS'148'
p4897
aS'149'
p4898
aS'150'
p4899
aS'151'
p4900
aS'152'
p4901
aS'153'
p4902
aS'154'
p4903
aS'155'
p4904
aS'156'
p4905
aS'157'
p4906
aS'158'
p4907
aS'159'
p4908
aS'160'
p4909
aS'161'
p4910
aS'162'
p4911
aS'163'
p4912
aS'164'
p4913
aS'165'
p4914
aS'166'
p4915
aS'167'
p4916
aS'168'
p4917
aS'169'
p4918
aS'170'
p4919
aS'171'
p4920
aS'172'
p4921
aS'173'
p4922
aS'174'
p4923
aS'175'
p4924
aS'176'
p4925
aS'177'
p4926
aS'178'
p4927
aS'179'
p4928
aS'180'
p4929
aS'181'
p4930
aS'182'
p4931
aS'183'
p4932
aS'184'
p4933
aS'185'
p4934
aS'186'
p4935
aS'187'
p4936
aS'188'
p4937
aS'189'
p4938
aS'190'
p4939
aS'191'
p4940
aS'192'
p4941
aS'193'
p4942
aS'194'
p4943
aS'195'
p4944
aS'196'
p4945
aS'197'
p4946
aS'198'
p4947
aS'199'
p4948
aS'200'
p4949
aS'201'
p4950
aS'202'
p4951
aS'203'
p4952
aS'204'
p4953
aS'205'
p4954
aa(lp4955
S'Invited Talk'
p4956
aS'Planetary Nebula and Supernova Remnants'
p4957
aS'Databases and Software'
p4958
aS'AGNs'
p4959
aS'Cosmology and Gravitational Lenses'
p4960
aS'Normal Galaxies: Structure and Dynamics'
p4961
aS'X-Ray Binaries and Gamma-Ray Binaries'
p4962
aS'General ISM, Dust'
p4963
aS'WGAS'
p4964
aS'Teaching of Astronomy'
p4965
aS'Education'
p4966
aS'High Energy Observations of AGNs'
p4967
aS'Large Scale Structure'
p4968
aS'Education I'
p4969
aS'Solar and Solar-System Physics'
p4970
aS'WGAS I'
p4971
aS'Normal Galaxies'
p4972
aS'Invited Talk'
p4973
aS'Supernovae and SNRs'
p4974
aS'General ISM'
p4975
aS'Education II'
p4976
aS'Late-Type and Variable Stars'
p4977
aS'Emission-Line, Starburst and Ultra-Luminous Galaxies'
p4978
aS'Invited Talk'
p4979
aS'EUVE -- Astronomy I'
p4980
aS'Interferometry I'
p4981
aS'Hat Creek'
p4982
aS'HST Instruments and Techniques'
p4983
aS'Novae and Supernovae'
p4984
aS'Clusters of Galaxies'
p4985
aS'Star-Forming Galaxies'
p4986
aS'Local Group Galaxies'
p4987
aS'Gamma-Rays and Cosmic Rays'
p4988
aS'Airbourne Astronomy'
p4989
aS'Hat Creek'
p4990
aS'Particle Astrophysics'
p4991
aS'Interferometry'
p4992
aS'EUVE -- Astronomy II'
p4993
aS'Interferometry II'
p4994
aS'Particle Astrophysics'
p4995
aS'EUVE -- Astronomy'
p4996
aS'Invited Talk'
p4997
aS'Galactic Structure'
p4998
aS'Radio Galaxies, Jets and Disks'
p4999
aS'Early Type Stars'
p5000
aS'Late Type Stars'
p5001
aS'Degenerates'
p5002
aS'Solar and Solar-System Physics'
p5003
aS'Associations and Clusters'
p5004
aS'Globular Clusters'
p5005
aS'Instrumentation'
p5006
aS'NSF Astronomy'
p5007
aS'AGN and Radio Galaxies I'
p5008
aS'MW, Galactic Structure'
p5009
aS'SN 1993J; High Energy Astrophysics'
p5010
aS'Stellar Evolution and Clusters'
p5011
aS'Russell Lecture'
p5012
aS'Invited Talks'
p5013
aS'Invited Talk'
p5014
aS'HII Regions'
p5015
aS'Molecular Clouds, Star Formation'
p5016
aS'Very Young Stars'
p5017
aS'Intrinsic and Cataclysmic Variables'
p5018
aS'Pulsars'
p5019
aS'Women In Astronomy'
p5020
aS'HAD'
p5021
aS'Galaxy Clusters and the Extragalactic Distance Scale'
p5022
aS'Star Formation'
p5023
aS'Cataclysmic Variables and Pulsars'
p5024
aS'AGNs and Radio Galaxies II'
p5025
aS'Instruments and Techniques'
p5026
aS'HAD'
p5027
aS'Invited Talk'
p5028
aS'Gamma-Ray Bursts'
p5029
aS'Star Formation II'
p5030
aS'Keck'
p5031
aS'Cosmic Background Radiation'
p5032
aS'QSOs and Gravitational Lenses'
p5033
aS'HAD/Huntington I'
p5034
aS'HAD/Huntington II'
p5035
aS'HAD/Huntington III'
p5036
aS'Astronomy and the State'
p5037
aS'Invited Talk'
p5038
aS'Galaxy Surveys'
p5039
aS'Gamma Ray Astrophysics'
p5040
aS'ROSAT Observations of Clusters and Groups'
p5041
aS'Miscellaneous'
p5042
aS'Solar Activity'
p5043
aS'Solar Observations and Instrumentation'
p5044
aS'Solar System'
p5045
aS'South Polar and Lunar Telescopes'
p5046
aS'Gemini, Keck, Seeing'
p5047
aS'Absorption Lines in QSOs'
p5048
aS'HII Regions'
p5049
aS'Interstellar Dust and Extinction'
p5050
aS'Flare and Active Stars'
p5051
aS'Molecular Clouds'
p5052
aS'Stellar Spectroscopy and Photometry: Surveys and General results'
p5053
aS'Stellar Spectra: Individual Objects'
p5054
aS'Gas and Star Formation in Spiral Galaxies'
p5055
aS'Mergers, Masers and Megamasers'
p5056
aS'Diffuse Galactic Emission'
p5057
aS'ROSAT'
p5058
aS'Galaxies I'
p5059
aS'Star Clusters/General Relativity'
p5060
aS'Solar System and Heliosphere'
p5061
aS'Molecular Cloud Structure and Energetics'
p5062
aS'Celestial Visibility'
p5063
aS'Invited Talk'
p5064
aS'Gamma Ray Astrophysics'
p5065
aS'Seyfert Galaxies'
p5066
aS'Supernovae'
p5067
aS'Circumstellar Environments'
p5068
aS'Galaxies II'
p5069
aS'HAD'
p5070
aS'Invited Talk'
p5071
aS'Invited Talk'
p5072
aS'Pulsars'
p5073
aS'Supernovae'
p5074
aS'SN1993J, SN1978K and SN1987A'
p5075
aS'Young Stars and T Tauri Stars'
p5076
aS'Circumstellar Disks'
p5077
aS'Ellipticals'
p5078
aS'HII Regions and Star Formation in Spirals'
p5079
aS'Interstellar Medium'
p5080
aS'IUE Final Archive'
p5081
aS'Seyfert Galaxies and LINERS'
p5082
aS'Radio Telescopes, Miscellaneous'
p5083
aS'Software and Analytical Tools'
p5084
aS'Star Formation'
p5085
aS'White Dwarfs'
p5086
aS'Planetary Nebulae'
p5087
aS'Interacting Binaries: Accretion Phenomena'
p5088
aS'Cluster Cooling Flows and Abundances'
p5089
aS'Interacting Binaries: Hot Stars'
p5090
aS'Interacting Binaries: CVs and XRBs'
p5091
aS'Luminous AGNs'
p5092
aS'Galaxies III'
p5093
aS'Outflows and the Low Mass IMF'
p5094
aS'Solar Surface and Corona'
p5095
aS'Galactic Structure'
p5096
aS'Education/Curriculum'
p5097
aS'Public Policy Address'
p5098
aS'The Changing Climate for Federal Funding'
p5099
aS'AGN Surveys and High Energy Spectra'
p5100
aS'Interacting Binaries: Compact Stars'
p5101
aS'Spiral Galaxies'
p5102
aS'Cosmology and Distance Indicators'
p5103
aS'Solar Activity'
p5104
aS'Invited Talks'
p5105
aS'Invited Talk'
p5106
aS'Galaxy and CBR Distribution'
p5107
aS'High Z Line Measurements; Gravitational Microlensing: Distance Determination'
p5108
aS'Astrometric Instruments and Results'
p5109
aS'Globular Clusters'
p5110
aS'VLBI Obsesrvations'
p5111
aS'Spiral and Bar Structure in Galaxies'
p5112
aS'Starbursts'
p5113
aS'Galactic Structure and Star Counts'
p5114
aS'Structure of Galaxies'
p5115
aS'AGN and Jets'
p5116
aS'Stellar Winds and Outflows'
p5117
aS'Relativistic Astrophysics'
p5118
aS'Supernova Remnants'
p5119
aS'Variable Stars'
p5120
aS"Interacting Binaries: ``Normal'' Stars"
p5121
aS'Double Stars'
p5122
aS'Cluster Evolution'
p5123
aS'Teaching Astronomy'
p5124
aS'HEAD I - ASCA'
p5125
aS'Absorption in AGN Spectra'
p5126
aS'Radio Galaxies and Lyman Continuum Absorption'
p5127
aS'Dust and Gas in the ISM'
p5128
aS'Pulsars'
p5129
aS'Education/Demonstrations'
p5130
aS'Warner Prize Lecture'
p5131
aS'HEAD II - SN1993J'
p5132
aS'Astronomers Meet the Press'
p5133
aS'Galaxies and Cluster Environment'
p5134
aS'Molecular Clouds and Star Formation'
p5135
aS'AGN: Unified Picture'
p5136
aS'Evolved Stars, Supernova Remnants'
p5137
aS'Invited Talks'
p5138
aS'Pierce Prize Lecture'
p5139
aS'Radio Galaxies and AGN'
p5140
aS'Broad Absorption Line Quasars'
p5141
aS'AGN'
p5142
aS'BL Lacs and Blazars'
p5143
aS'Dwarf and Irregular Galaxies'
p5144
aS'Stellar Populations'
p5145
aS'Open Clusters'
p5146
aS'Stellar Interiors'
p5147
aS'Models and Synthetic Spectroscopy'
p5148
aS'HST, UIT and UV Instruments, UV Processing and Archives'
p5149
aS'Multi-Phase Interstellar Medium'
p5150
aS'Cosmology and Dark Matter'
p5151
aS'Galactic Center and Diffuse Galactic Emission'
p5152
aS'Astronomical Instruments and Techniques'
p5153
aS'WGAS'
p5154
aS'Starbursts and Seyfert 2s'
p5155
aS'Heineman Prize Lecture'
p5156
aS'Cosmology and CMB'
p5157
aS'AGN: Accretion Disks, Tori and Gas'
p5158
aS'Intrinsic Variables and Active Stars'
p5159
aS'Special Interest Session Sponsored by WGAS'
p5160
aS'Structure of Clusters of Galaxies'
p5161
aS'Brouwer Prize Lecture'
p5162
aS'Education'
p5163
aS'HST Performance and Process'
p5164
aS'Solar System'
p5165
aS'Chromospheres/Coronae/Active Binaries'
p5166
aS'Binary Stars'
p5167
aS'Stellar Abundances Across the H-R Diagram'
p5168
aS'Pulsars'
p5169
aS'Galactic X-Ray/Gamma-Ray Sources'
p5170
aS'Gamma Ray Sources'
p5171
aS'Luminous AGN and QSOs'
p5172
aS'Starburst Galaxies'
p5173
aS'Models or Gas Flows and Spectral Formation'
p5174
aS'Comets, Asteroids, Meteoroids'
p5175
aS'Gamma Ray Bursts'
p5176
aS'Molecular Clouds, Star Formation, Very Young Stars, T Tauri Stars'
p5177
aS'Radio Galaxies and High Luminosity AGNs'
p5178
aS'Astronomers Outside the University'
p5179
aS'Rossi Prize Lecture'
p5180
aS'Cosmic X-Ray and Microwave Background'
p5181
aS'Pulsars'
p5182
aS'Galaxy Structure and Kinematics'
p5183
aS'Starburst Activity in External Galaxies'
p5184
aS'Invited Talk'
p5185
aS'SIRTF'
p5186
aS'Detectors and Telescopes'
p5187
aS'Digitizing the Sky'
p5188
aS'Software and Catalogs'
p5189
aS'General Interstellar Medium'
p5190
aS'Star Formation, Molecular Clouds and HII Regions'
p5191
aS'Massive Hot Stars'
p5192
aS'Galaxy Dynamics'
p5193
aS'Relativistic Astrophysics'
p5194
aS'Massive Hot Stars with the Hubble Space Telescope Part I'
p5195
aS'Digitizing the Sky Part I'
p5196
aS'Galaxy Dynamics: Theory and Observation'
p5197
aS'Massive Hot Stars with the Hubble Space Telescope Part II'
p5198
aS'Digitizing the Sky Part II'
p5199
aS'Infrared Space Observatory'
p5200
aS'Computational Astrophysics I'
p5201
aS'Computational Astrophysics II'
p5202
aS'Astrometry'
p5203
aS'Searching for Brown Dwarfs'
p5204
aS'Young Stars, T Tauri Stars, Herbig Haro Objects'
p5205
aS'CVs/Symbiotic Stars'
p5206
aS'Novae'
p5207
aS'Nova Cygni 1992'
p5208
aS'Spiral, Dwarf and Irregular Galaxies'
p5209
aS'Elliptical Galaxies'
p5210
aS'Grand Challenges in Computational Astrophysics Part I'
p5211
aS'Brown Dwarfs and Very Low Mass Stars'
p5212
aS'Grand Challenges in Computational Astrophysics Part II'
p5213
aS'Recent Observational Results on Nova Cygni 1992'
p5214
aS'Invited Talk'
p5215
aS'Pulsating Variables/Stellar Models'
p5216
aS'Supernova Remnants Observation'
p5217
aS'Planetary Nebulae/Supernovae/Ejecta'
p5218
aS'The Galaxy'
p5219
aS'Low Luminosity AGNs and Active Galaxies'
p5220
aS'Intergalactic Medium'
p5221
aS'Properties and Evolution of Clusters of Galaxies'
p5222
aS'Large Scale Structures'
p5223
aS'Large Scale Structure and Cosmology'
p5224
aS'Low Luminosity AGNs and Active Galaxies'
p5225
aS'The Galaxy and Galactic ISM'
p5226
aS'Supernova Remnants'
p5227
aS'Compact Objects/Stellar Winds'
p5228
aS'Invited Talk'
p5229
aS'Southwestern Archaeoastronomy'
p5230
aS'History in Astronomy Education I'
p5231
aS'Invited Talk'
p5232
aS'Public Outreach'
p5233
aS'Education'
p5234
aS'Positional Astronomy'
p5235
aS'Radiative Transfer and Opacities'
p5236
aS'Radio Surveys and Techniques'
p5237
aS'HST Observing and Instruments'
p5238
aS'Remote Observing, Ground-Based Telescopes and, Space Instruments'
p5239
aS'Novae'
p5240
aS'Interstellar Medium'
p5241
aS'Integalactic Medium'
p5242
aS'Lyman Alpha Clouds'
p5243
aS'Gamma Ray Bursts'
p5244
aS'>100 GeV Gamma Ray Astronomy'
p5245
aS'MACHO Projects'
p5246
aS'AGN Spectroscopy'
p5247
aS'Multiwavelength AGN Studies'
p5248
aS'AGN Environments'
p5249
aS'Cataclysmic Variables, Dwarf Novae'
p5250
aS'Galactic Structure; Galactic Center'
p5251
aS'Gravitational Lensing'
p5252
aS'The Distance Scale'
p5253
aS'Ellipticals and Dark Matter'
p5254
aS'Interstellar Medium and Radiative Shocks'
p5255
aS'Spectroscopy of AGN I: Narrowlines'
p5256
aS'Mechanisms of Supernova Explosions'
p5257
aS'Education'
p5258
aS'History of Astronomy'
p5259
aS'Russell Prize Lecture'
p5260
aS'COBE'
p5261
aS'Supernovae'
p5262
aS'Spectroscopy of AGN II: Broad Lines and Spectral Evolution'
p5263
aS'Dwarf Galaxies'
p5264
aS'Giant and Supergiant Stars'
p5265
aS'History in Astronomy Education II'
p5266
aS'Invited Talks'
p5267
aS'Hale Prize Lecture'
p5268
aS'Numerical Techniques and Models'
p5269
aS'Catalogs, Computer Information, Services, Analysis and Tools'
p5270
aS'High-Spatial Resolution'
p5271
aS'SL-9, Comets, Solar System'
p5272
aS'Solar Observations and Theory'
p5273
aS'Stellar Activity I'
p5274
aS'White Dwarfs'
p5275
aS'Planetary Nebulae'
p5276
aS'Young Stars'
p5277
aS'Interstellar Dust and Polarization'
p5278
aS'Supernova Remnants'
p5279
aS'Dwarf Galaxies'
p5280
aS'Elliptical Galaxies'
p5281
aS'Clusters of Galaxies I'
p5282
aS'HST Medium Deep Survey'
p5283
aS'Early Universe'
p5284
aS'Large-Scale Structure'
p5285
aS'COBE and Related Papers'
p5286
aS'Distance Scale, Spiral Galaxies I'
p5287
aS'General Properties of AGN'
p5288
aS'Extremes in Astrophysics'
p5289
aS'Novae and Stellar Accretion'
p5290
aS'Supernova Remnants and Pulsars'
p5291
aS'WGAIT'
p5292
aS'Urey Prize Lecture'
p5293
aS'SL-9 Impact, PLanets'
p5294
aS'Galactic Center'
p5295
aS'Timing in X-Ray Astronomy</b>\n'
p5296
aS'Starbursts and Interacting Galaxies'
p5297
aS'Remote Observing'
p5298
aS'Active Galaxies and Intergalactic Medium'
p5299
aS'Pollution'
p5300
aS'Invited Talks: Impacts and Vulcanism'
p5301
aS'Warner Prize Lecture'
p5302
aS'Clusters of Galaxies II: X-Rays'
p5303
aS'Interacting Galaxies and Starbursts'
p5304
aS'Spirals I'
p5305
aS'Spirals II'
p5306
aS'Pulsars and Neutron Stars'
p5307
aS'Supernovae: Observations and Theory'
p5308
aS'Stellar Activity II: Early Type Stars, Normal Stars'
p5309
aS"YSO's, Masers and Molecules"
p5310
aS'HII Regions'
p5311
aS'Circumstellar Gas and Dust'
p5312
aS'Star Forming Clouds'
p5313
aS'Binaries'
p5314
aS'Solar Active Regions'
p5315
aS'HST'
p5316
aS'Mulit-Wavelength Observations of Blazars and BL Lacertae Objects'
p5317
aS'Clusters of Galaxies - Galaxy Evolution'
p5318
aS'Planetary Nebula and Degenerate Stars'
p5319
aS'Young Stars and Young Clusters'
p5320
aS'Solar Active Regions and Solar Wind'
p5321
aS'HST'
p5322
aS'Acceleration and Jets in AGN, High Redshift Quasars, Polarization'
p5323
aS'Substructures of Galaxy Clusters, Field Galaxies'
p5324
aS'YSOs and Masers'
p5325
aS'Milky Way'
p5326
aS'Activity and Abundances Near the Main Sequence'
p5327
aS'Invited Talks: Star Formation'
p5328
aS'Heineman Prize Lecture'
p5329
aS'Intrinsic Variables'
p5330
aS'X-Ray Variables, Binaries and Transients'
p5331
aS'Open and Globular Clusters'
p5332
aS'Globular Clusters'
p5333
aS'Barred Spirals'
p5334
aS'Galaxies: Photometry and Spectrophotometry'
p5335
aS'Galaxies: Morphology and Interactions'
p5336
aS'Seyfert Galaxies'
p5337
aS'Extragalactic Radio Sources, Jets'
p5338
aS'Blazars and BL Lacs'
p5339
aS'Gamma Ray Bursts'
p5340
aS'Microlensing and the Search for MACHOS'
p5341
aS'Early Universe and Cosmic Microwave Background'
p5342
aS'Compact Groups, Galaxy and Quasar Clustering'
p5343
aS'WGAS'
p5344
aS'Globular Clusters and Compact Objects'
p5345
aS'Invited Talk'
p5346
aS'Cosmic Microwave Background'
p5347
aS'Galaxies and Clusters of Galaxies, X-Ray Observations'
p5348
aS'Galactic Gamma Rays'
p5349
aS'Early Stars, X-Ray Binaries, Theory'
p5350
aS'Ultracompact HII Regions and Star Formation'
p5351
aS'Solar Magnetic Field and Solar Variabilty'
p5352
aS'Invited Talk'
p5353
aS'Software'
p5354
aS'Instrumentation and Techniques I: Ground Based'
p5355
aS'Instrumentation and Techniques II: Space Based'
p5356
aS'Gamma Ray Astronomy'
p5357
aS'Cepheid Variables and the Distance Scale'
p5358
aS'Clusters of Galaxies/Binary Galaxies'
p5359
aS'Surveys and Cosmology'
p5360
aS'Protostars, Young Stars and Stellar Accretion Disks'
p5361
aS'Variable Stars'
p5362
aS'AGNs I: Observations'
p5363
aS'Stars and Variable Stars'
p5364
aS'Solar System'
p5365
aS'The ApJ and the Rise of American Astrophysics'
p5366
aS'AGNs II: Models'
p5367
aS'Astro 2'
p5368
aS'Instrumentation, Techniques and Surveys'
p5369
aS'Rossi Prize Lecture'
p5370
aS'Invited Talk'
p5371
aS'Astro 2'
p5372
aS'Stellar Spectroscopy, Atmospheres, Models, Intrinsic Variables, Theory, Part I'
p5373
aS'Stellar Spectroscopy, Atmospheres, Models, Intrinsic Variables, Theory, Part II'
p5374
aS'Low-Luminosity AGNs'
p5375
aS'AGNs/QSOs - High Luminosity'
p5376
aS'QSO Absorption-Line Studies with HST and Keck'
p5377
aS'The Dynamics of Large Scale Structure'
p5378
aS'The Space VLBI Mission VSOP182'
p5379
aS'QSO Absorption-Line Studies with HST and Keck'
p5380
aS'The Dynamics of Large Scale Structure'
p5381
aS'First Results from Astro 2'
p5382
aS'Astronomical Education'
p5383
aS'Astrometry'
p5384
aS'Solar System'
p5385
aS'Atomic and Nuclear Astrophysics'
p5386
aS'ISM: Abundances and Dust'
p5387
aS'ISM: Structure, Molecular Clouds'
p5388
aS'Supernovae and Their Remnants'
p5389
aS'Planetary Nebulae and Novae'
p5390
aS'Spiral, Dwarf and Irregular Galaxies'
p5391
aS'Starburst Galaxies'
p5392
aS'The Status of Large Telescope Projects, Instrumentation and Plans for Large Science Programs in the Areas of Wide-Field Surveys'
p5393
aS'Metallicity in AGN and the Near-AGN Environment'
p5394
aS'Planetariums'
p5395
aS'The Status of Large Telescope Projects, Instrumentation and Plans for Large Science Projectects in the Areas of Wide-Field Surveys'
p5396
aS'Metallicity in AGN and the Near-AGN Environment'
p5397
aS'Invited Talk'
p5398
aS'Binary Stars'
p5399
aS'Degenerate Stars and Pulsars'
p5400
aS'Star Clusters in the Milky Way and Other Galaxies'
p5401
aS'The Milky Way'
p5402
aS'Galaxies'
p5403
aS'Gravitational Lenses/QSO Absorption Lines'
p5404
aS'Gamma Ray Bursts'
p5405
aS'Communicating Science to the Public'
p5406
aS'Heineman Prize Lecture'
p5407
aS'Large Scale Structure/Cosmology'
p5408
aS'Molecular Astrophysics/ISM'
p5409
aS'Applied History of Astronomy I'
p5410
aS'Applied History of Astronomy II'
p5411
aS'Invited Talks'
p5412
aS'Space Mission Status'
p5413
aS'Education'
p5414
aS'Teaching Astronomy'
p5415
aS'Cosmology and Cosmological Parameters'
p5416
aS'Distance Indicators'
p5417
aS'The Hubble Deep Field'
p5418
aS'Gamma-ray Bursts and Soft Gamma-ray Repeaters'
p5419
aS'LMC, Dwarf Galaxies'
p5420
aS'Radio Galaxies, VLBI'
p5421
aS'Observations of Radio Sources'
p5422
aS'Milky Way Galaxy'
p5423
aS'Interstellar Medium I'
p5424
aS'Radio Pulsars'
p5425
aS'Supernovae'
p5426
aS'White Dwarfs'
p5427
aS'Hot Stars'
p5428
aS'Molecular Clouds, Dense Cores, and Protostars'
p5429
aS'Jets, H-H Objects, and Molecular Outflows'
p5430
aS"YSOs' Variability"
p5431
aS'The Changing Shape of Graduate Education in Science'
p5432
aS'Seyfert & Starburst Galaxies; Winds, Outflows & Energetics'
p5433
aS'Stellar Winds, Accretion, & Molecular Clouds'
p5434
aS'X-ray Emission Flow, Neutron Stars & White Dwarfs'
p5435
aS'Astronomies and Cultures (HAD)'
p5436
aS'Working Group on Astronomical Imaging Technology'
p5437
aS'Invited Talk'
p5438
aS'Galaxy Evolution I'
p5439
aS'Black Holes'
p5440
aS'Stellar Astrophysics II'
p5441
aS'Neutron Stars & White Dwarfs'
p5442
aS'The Universe According to COBE'
p5443
aS'The Western Tradition (HAD)'
p5444
aS'Rossi Prize Lecture'
p5445
aS'Pierce Prize Lecture'
p5446
aS'Electronic Journals and Other AAS Web Services'
p5447
aS'Observing with HST'
p5448
aS'Adverse Environmental Impacts on Astronomy'
p5449
aS'SETI Results'
p5450
aS'Solar Systems'
p5451
aS'Binary Stars'
p5452
aS'Circumstellar Material'
p5453
aS'Interstellar Medium I'
p5454
aS'Gamma-ray Sources & Diffuse Emission'
p5455
aS'Microlensing'
p5456
aS'Spiral & Field Galaxies'
p5457
aS'Starburst Galaxies'
p5458
aS'Active Galaxies'
p5459
aS'Star Formation & Chemical Evolution of Galaxies'
p5460
aS'Simulations of Clusters of Galaxies'
p5461
aS'Surveys of Galaxies & Clusters'
p5462
aS'Large Scale Structure'
p5463
aS'Galactic Microquasars'
p5464
aS'Active Galaxies:  The Central Engine'
p5465
aS'Policy Making in Astronomy and its Impact on the Community'
p5466
aS'Gamma Rays & Cosmic Rays'
p5467
aS'Milky Way, Center & Halo'
p5468
aS'Stellar Astrophysics I'
p5469
aS'Russell Prize Lecture'
p5470
aS'X-ray Astronomy:  New Discoveries'
p5471
aS'Galaxy Evolution II'
p5472
aS'Getting & Holding a Job with an Astronomy Degree'
p5473
aS'ISM in Nearby Galaxies'
p5474
aS'Young Clusters, High-Mass YSOs and Their Environment'
p5475
aS'Cosmic Microwave Background'
p5476
aS'Invited Talks:  Observing Star Formation'
p5477
aS'Invited Talk'
p5478
aS'Searching for Other Planetary Systems'
p5479
aS'Space Astronomy in the Next Millennium'
p5480
aS'Proposed Space Missions'
p5481
aS'Instrumentation'
p5482
aS'Ground-Based Instruments'
p5483
aS'2MASS'
p5484
aS'Adaptive Optics'
p5485
aS'AXAF Calibration'
p5486
aS'Supernova Remnants'
p5487
aS'CVs and Novae'
p5488
aS'Central Stars of Planetary Nebulae'
p5489
aS'Planetary Nebulae'
p5490
aS'Globular Clusters'
p5491
aS'Elliptical Galaxies'
p5492
aS'QSOs and BL Lacs'
p5493
aS'Quasar Absorption Line Systems'
p5494
aS'Measurement of Cosmological Parameters'
p5495
aS'Environments of QSOs and Radio Galaxies'
p5496
aS'Structure and Kinematics of Galaxies'
p5497
aS'Searching for Other Planetary Systems'
p5498
aS'Supernovae, Supernovae Remnants and Planetary Nebulae'
p5499
aS'Working Group on Astronomical Software'
p5500
aS'Public Policy Talk'
p5501
aS'Space Astronomy in the Next Millennium'
p5502
aS'Large-Scale Structure: Observations and Theory'
p5503
aS'X-Ray Galaxies and Clusters'
p5504
aS'QSO Absorption Systems'
p5505
aS'Supernovae'
p5506
aS'Invited Talks:  Adaptive Optics'
p5507
aS'Invited Talk'
p5508
aS'Public Policy Talk'
p5509
aS'The Solar Photosphere and Magnetic Field'
p5510
aS'Clusters'
p5511
aS'Low Luminosity AGN and Starburst Galaxies'
p5512
aS'High Luminosity AGN'
p5513
aS'Evolution, Survey and Clusters of Galaxies'
p5514
aS'Gas and Dust in the ISM'
p5515
aS'Milky Way Structure'
p5516
aS'Dwarf Galaxies'
p5517
aS'Spiral Galaxies'
p5518
aS'Elliptical Galaxies'
p5519
aS'Cosmology, Large-Scale Structure and Distance Scales'
p5520
aS'Gravitational Effects'
p5521
aS'Gamma-Ray Bursts'
p5522
aS'Teaching of Astronomy'
p5523
aS'Low Luminosity AGN'
p5524
aS'Molecular Clouds and Star Formation'
p5525
aS'Stellar Winds and Rotation'
p5526
aS'Solar Flares'
p5527
aS'Research Experiences for Undergraduates'
p5528
aS'Galaxies and Clusters of Galaxies'
p5529
aS'Hale Prize Lecture'
p5530
aS'High Luminosity AGN and QSOs'
p5531
aS'General Interstellar Medium'
p5532
aS'Stellar Oscillations Project'
p5533
aS'Solar Flares II'
p5534
aS'History and Teaching of Astronomy'
p5535
aS'Stellar Evolution: Beyond the Main Sequence'
p5536
aS'Invited Talks'
p5537
aS'Radio Astronomy, Yesterday, Today and Tomorrow - I'
p5538
aS'The Diffuse Interstellar Medium, Progress and Puzzles - I'
p5539
aS"Curriculum in Crisis: Reinventing Stellar Astrophysics for Today's Graduate Student"
p5540
aS'Dynamics of Solar Magnetic Fields'
p5541
aS'Solar System'
p5542
aS'Solar Magnetic Fields'
p5543
aS'Solar Activity'
p5544
aS'First Results from the Solar and Heliospheric Observatory (SOHO)'
p5545
aS'Disks and Bipolar Outflows from Hot Stars'
p5546
aS"Curriculum in Crisis: Reinventing Stellar Astrophysics for Today's Graduate Student"
p5547
aS'The Environment of Stars: From Protostars to the Main Sequence'
p5548
aS'Jets and Outflows from YSOs'
p5549
aS'Molecular Clouds: Models and Observations'
p5550
aS'The Diffuse ISM: Milky Way and Beyond'
p5551
aS'The Local Diffuse ISM'
p5552
aS'Radio Astronomy, Yesterday, Today and Tomorrow'
p5553
aS'Radio Astronomy, Yesterday, Today and Tomorrow - II'
p5554
aS'The Diffuse Interstellar Medium, Progress and Puzzles - II'
p5555
aS'New Instrumentation for the Hubble Space Telescope and Plans for the 1997 Servicing Missions'
p5556
aS'First Results from the Solar and Heliospheric Observatory (SOHO)'
p5557
aS'Disks and Bipolar Outflows from Hot Stars - I'
p5558
aS'New Views of the Magellanic Clouds - I'
p5559
aS'First Results from the Infrared Space Observatory'
p5560
aS'First Results from the Global Oscillations Network Group (GONG)'
p5561
aS'Ground and Instrumentation Techniques and Catalogs'
p5562
aS'Space Instrumentation'
p5563
aS'New Solar Instrumentation'
p5564
aS'Astrophysical Diagnostics from Polarimetry'
p5565
aS'Stellar Modelling/Abundances'
p5566
aS'Pulsating/Variable Stars'
p5567
aS'Multiple Stars'
p5568
aS'New Views of the Magellanic Clouds'
p5569
aS'Comet Hyakutake Encounter'
p5570
aS'First Results from the Infrared Space Observatory'
p5571
aS'Disks and Bipolar Outflows from Hot Stars - II'
p5572
aS'New Views of the Magellanic Clouds - II'
p5573
aS'Astrophysical Diagnostics from Polarimetry'
p5574
aS'New Solar Instrumentation'
p5575
aS'Invited'
p5576
aS'The Solar Dynamo and Helioseismology'
p5577
aS'Solar Flares and Ejections'
p5578
aS'Stellar Activity/Starspots'
p5579
aS'Late Type Stars and Planetary Nebulae'
p5580
aS'White Dwarfs, Neutron Stars and Pulsars'
p5581
aS'Supernova Remnants'
p5582
aS'The Crab Nebula'
p5583
aS'Exploding Stars'
p5584
aS'Normal Galaxies'
p5585
aS'Unique Objects and Gamma Bursts'
p5586
aS'Quiet Solar Photosphere and Chromosphere'
p5587
aS'Solar Corona and Transition Region'
p5588
aS"IDEA's in Astronomy"
p5589
aS'Pierce Prize Lecture'
p5590
aS'Starbursts and Mergers'
p5591
aS'Neutron Stars and Their Friends'
p5592
aS'Instruments, Databases and Techniques'
p5593
aS'Coronal Activity'
p5594
aS'Star Parameters'
p5595
aS'HAD I: North of the Border:  The Development of Canadian Astronomy'
p5596
aS'Heineman Prize Lecture'
p5597
aS'SIRTF'
p5598
aS'The WWW and Astronomy Education'
p5599
aS'Education'
p5600
aS'An Integrated Web Resource'
p5601
aS'Catalogs & Surveys'
p5602
aS'The X-Ray Background'
p5603
aS'X-Ray Catalogs & Instrumentation'
p5604
aS'AGN - Host Galaxies & Environment'
p5605
aS'AGN'
p5606
aS'Distance Scale'
p5607
aS'Large Scale Structure & Cosmology'
p5608
aS'Surveys'
p5609
aS'Structure and Collapse of Molecular Clouds:  Theory'
p5610
aS"Interstellar Grains, PAH's and the Insterstellar Bands"
p5611
aS'The Galactic Interstellar Gas'
p5612
aS'The Sun'
p5613
aS'Solar & Planetary Systems'
p5614
aS'QSOs'
p5615
aS'Massive Star Formation & Ultracompact HII Regions'
p5616
aS'Disk Galaxies'
p5617
aS'Astronomy Education:  Current Developments & Trends'
p5618
aS'HAD II'
p5619
aS'Solar System'
p5620
aS'Russell Prize Lecture'
p5621
aS'Gravitational Lensing & Dark Matter'
p5622
aS'Diffuse Gamma-Ray Emission & Gamma-Ray Bursts'
p5623
aS'Dynamical Evolution of Galaxies'
p5624
aS'Teaching Astronomy with the WWW'
p5625
aS'Radiogalaxies - High Energy'
p5626
aS'Stars in Various Throes of Stellar Evolution'
p5627
aS'Probing the Early Universe with Keck and HST'
p5628
aS'Invited Talk'
p5629
aS'Galactic X-Ray (XTE) Sources'
p5630
aS'Extragalactic X-Ray Sources'
p5631
aS'Clusters of Galaxies - X-Rays'
p5632
aS'Dwarf Galaxies'
p5633
aS'AGN Surveys'
p5634
aS'Radiogalaxies & Jets'
p5635
aS'Elliptical Galaxies'
p5636
aS'Ground-Based Optical Telescopes & Instruments'
p5637
aS'HST Instruments & Other Missions'
p5638
aS'Stellar X-Ray Sources'
p5639
aS'Supernovae'
p5640
aS'Supernova Remnants'
p5641
aS'Novae'
p5642
aS'Circumstellar Envelopes'
p5643
aS'Young Stellar Objects'
p5644
aS'Molecular Outflows, Stellar Jets, and Herbig-Haro Objects'
p5645
aS'WIRE, MSX and the Cosmic Background'
p5646
aS'HEAD I:  First Results from RXTE'
p5647
aS'Circumstellar Disks & Outflows Associated with YSOs'
p5648
aS'Spiral Galaxy Kinematics'
p5649
aS'Supernova Remnants'
p5650
aS'The Sun'
p5651
aS'WGAIT'
p5652
aS'Rossi Prize Lecture'
p5653
aS'HEAD II: Cosmic Particle Accelerators'
p5654
aS'Next Generation Space Telescope'
p5655
aS'Formation and Structure of the Milky Way'
p5656
aS'Elliptical Galaxies:  Dynamics and the UV Upturn'
p5657
aS'Stars and A Radio Source'
p5658
aS'Globular Clusters'
p5659
aS'Stars and Their Progeny:  Outflows and Inflows'
p5660
aS'Invited Talk'
p5661
aS'ISM in Galaxies'
p5662
aS'Disk Galaxies'
p5663
aS'Starburst Galaxies'
p5664
aS'The Milky Way'
p5665
aS'Globular Clusters'
p5666
aS'Open Clusters'
p5667
aS'Gravitational Lensing'
p5668
aS'Pulsars'
p5669
aS'Infrared Instrumentation'
p5670
aS'Cataclysmic Variables and Accretion Disks'
p5671
aS'Binary Stars'
p5672
aS'Stars - Young and Old, Large and Small'
p5673
aS'White Dwarf Stars'
p5674
aS'Stellar Population in Cluster Galaxies'
p5675
aS'Variable Cool and Late Type Stars'
p5676
aS'Gravitational Lensing & Dark Matter'
p5677
aS'Galaxy Evolution/Interaction'
p5678
aS'Dwarf Galaxies'
p5679
aS'Cataclysmic Variables and Accretion Disks'
p5680
aS'Rotating, Modeling and Blue Stars'
p5681
aS'Public Policy'
p5682
aS'Cosmic Background Radiation Anisotropies Now and in the Future'
p5683
aS'Starburst Galaxies'
p5684
aS'OJ287 and X-Ray Emission from Elliptical Galaxies'
p5685
aS'Structure of Molecular Clouds'
p5686
aS'Pulsars'
p5687
aS'GRIS'
p5688
aS'New Dynamics and Views of the Solar System'
p5689
aS'Invited'
p5690
aS'Cepheids and Supergiant Variable Stars'
p5691
aS'Planetary Nebulae'
p5692
aS'AGN-Absorption/Emission'
p5693
aS'Blazars'
p5694
aS'Invited Talk'
p5695
aS'Spiral, Irregular and Elliptical Galaxies'
p5696
aS'Evolution of Galaxies & Clusters of Galaxies'
p5697
aS'The Sun'
p5698
aS'Solar System Objects'
p5699
aS'The ISM & Molecular Clouds'
p5700
aS'Planetary & Other Nebulae'
p5701
aS'Teaching Projects'
p5702
aS'Instruments, Techniques'
p5703
aS'Studies of Black Holes'
p5704
aS'Instrumentation & Techniques'
p5705
aS'Degenerate Stars & Supernovae'
p5706
aS'Galaxies & Globular Clusters'
p5707
aS'Education & Abstract Services'
p5708
aS'Russell Prize Lecture'
p5709
aS'Studies of Black Holes & Future Survey Missions'
p5710
aS'ISM, Star Formation & Planets'
p5711
aS'Outcome of the Examination of Graduate Education in Astronomy'
p5712
aS'Old Stellar Populations in the Milky Way'
p5713
aS'All Sky Imaging Surveys of Black Hole Candidates and AGN - I'
p5714
aS'Amateurs & Professionals:  Collaborators in the New Age of Electronic Astronomy - I'
p5715
aS'Binary Stars: New Generation Modeling Developments & Results'
p5716
aS'Degenerate Stars, Pulsars'
p5717
aS'Star Formation in the Galaxy & the LMC'
p5718
aS'Stars in the Ultraviolet'
p5719
aS'Stars in the Visible & IR'
p5720
aS'Variable Stars, Novae, & Supernovae'
p5721
aS'Double Stars'
p5722
aS'High Resolution X-ray Imaging & Spectroscopy with AXAF'
p5723
aS'Amateurs & Professionals:  Collaborators in the New Age of Electronic Astronomy'
p5724
aS'Binary Stars: New Generation Modeling Developments'
p5725
aS'All Sky Imaging Surveys of Black Hole Candidates & AGN - II'
p5726
aS'Amateurs & Professionals: Collaborators in the New Age of Electronic Astronomy - II'
p5727
aS'High Resolution X-ray Imaging & Spectroscopy with AXAF'
p5728
aS'Old Stellar Populations Beyond the Milky Way - I'
p5729
aS'New Insights on X-ray Binaries - I'
p5730
aS'New Light on Supernovae Remnants'
p5731
aS'Modeling & Numerical Methods'
p5732
aS'AGNs, QSOs, Active Galaxies'
p5733
aS'Starburst Galaxies'
p5734
aS'T Tauri Stars & Protostellar Regions'
p5735
aS'Orfeus & STIS'
p5736
aS'Source Surveys'
p5737
aS'New Light on Supernova Remnants'
p5738
aS'New Insights on X-ray Binaries'
p5739
aS'Old Stellar Populations Beyond The Milky Way'
p5740
aS'Old Stellar Populations Beyond The Milky Way - II'
p5741
aS'New Insights on X-ray Binaries - II'
p5742
aS'Galactic Radioactivity, 26A1 & Solar System Origin'
p5743
aS'Invited Talk'
p5744
aS'Active Galactic Nuclei & Quasars'
p5745
aS'Clusters & Cosmology'
p5746
aS'Gamma Ray Investigations'
p5747
aS'Highest Energy Cosmic Rays'
p5748
aS'HAD I: LeRoy E. Doggett Memorial Session'
p5749
aS'Heineman Prize Lecture'
p5750
aS'Source Surveys, Galaxy Surveys, Distance Scale I'
p5751
aS'Education: Telescopes, the Web and Curricula'
p5752
aS'Accretion and Outflows in YSOs'
p5753
aS'HII Regions & Massive Star Formation'
p5754
aS'Molecular Clouds'
p5755
aS'Relativistic Astrophysics'
p5756
aS'SOFIA and IR Instrumentation'
p5757
aS'NICMOS'
p5758
aS'VLBI & Radio Instrumentation'
p5759
aS'Stellar Evolution - Theory'
p5760
aS'Stellar Spectra'
p5761
aS'Various Stellar Surveys'
p5762
aS'Planetary Nebulae and White Dwarfs'
p5763
aS'Astrometry'
p5764
aS'Data Archives & Tools'
p5765
aS'STIS'
p5766
aS'Source Surveys, Galaxy Surveys, Distance Scale II'
p5767
aS'Chemistry & Physical Process in the ISM'
p5768
aS'Luminous Infrared Galaxies'
p5769
aS'Radio - Loud AGN & Extragalactic Jets'
p5770
aS'Science with the Space Interferometry Mission'
p5771
aS'Disks, Bars & Halos'
p5772
aS'Seyfert Galaxies'
p5773
aS'Neutrinos & Stellar Abundances'
p5774
aS'Planets'
p5775
aS'HAD II: Modern Astronomical History'
p5776
aS'Public Policy: D. Goldin'
p5777
aS'Space Astronomy in the Next Millennium'
p5778
aS'Quasars'
p5779
aS'General ISM'
p5780
aS'Comets & Asteroids'
p5781
aS'New Results on the Nature of Eta Carinae'
p5782
aS'HAD III: From Hamlet to Crop Circles'
p5783
aS'Gamma Ray Bursts: Observations & Theory'
p5784
aS'Rossi Prize Lecture'
p5785
aS'HAD IV: Demographics, Alignments & Outreach'
p5786
aS'Supernovae'
p5787
aS'Supernova Remnants & SN 1987A'
p5788
aS'Visible & UV Telescopes'
p5789
aS'SIRTF'
p5790
aS'Variable Stars'
p5791
aS'Double Stars'
p5792
aS'Eclipsing Binaries'
p5793
aS'Variable Stars - Late Type'
p5794
aS'Circumstellar Disks & Shells'
p5795
aS'Gamma Rays & X-ray Instrumentation'
p5796
aS'Elliptical Galaxies & Bulges'
p5797
aS'Interstellar Medium I'
p5798
aS'Interstellar Medium II'
p5799
aS'AXAF, X-ray, Gamma Ray Instruments'
p5800
aS'The X Clusters: Cooling Flows'
p5801
aS'Next Generation Space Telescope'
p5802
aS'Gamma Ray Burst Breakthrough'
p5803
aS'BL Lacs & Blazars'
p5804
aS'Instrumentation & Information Science'
p5805
aS'Masters Programs: Ones that Work & Plans for the Future'
p5806
aS'Relativistic Astrophysics'
p5807
aS'Public Policy: A. Gore'
p5808
aS'Public Policy Panel'
p5809
aS'Dark Matter in Large Scale Structures'
p5810
aS'Surveys of Galaxies'
p5811
aS'Telescopes for the Next Millennium'
p5812
aS'What are AAS Members Doing in Education?'
p5813
aS'Radio - Loud AGN & Extragalactic Jets'
p5814
aS'Hubble Space Telescope: From the Interstellar Medium to Massive Black Holes'
p5815
aS'Invited Talk'
p5816
aS'Instabilities in Planetary Systems'
p5817
aS'Planetary Systems Near & Far'
p5818
aS'Comets & Asteroids'
p5819
aS'Comet Hale-Bopp'
p5820
aS'Solar Space Observations, SOHO & SERTS'
p5821
aS'The Quiet & Active Sun'
p5822
aS'Dust & PAHs in Galaxies'
p5823
aS'Star Formation in Galaxies'
p5824
aS'Structures of Galaxies'
p5825
aS'Seyfert Galaxies'
p5826
aS'Star Clusters in Other Galaxies'
p5827
aS'Star Clusters in the Milky Way'
p5828
aS'Dwarf Galaxies'
p5829
aS'Spirals & Irregulars'
p5830
aS'Gravitational Lensing'
p5831
aS'IGM'
p5832
aS'Cosmology: Observations'
p5833
aS'Cosmology: Theory'
p5834
aS'Large Scale Structure'
p5835
aS'Comet Hale-Bopp'
p5836
aS'Star-forming Galaxies'
p5837
aS'High Energy Phenomena in AGNs'
p5838
aS'COBE and the Search for the Cosmic Infrared Background'
p5839
aS'Very Young Stars, T-Tauri Stars, H-H Objects'
p5840
aS'Binary and Variable Stars'
p5841
aS'Pierce Prize Lecture'
p5842
aS'Cosmological Parameters and Large Scale Structure Formation'
p5843
aS'High-Throughput Spectroscopy & Imaging with XMM'
p5844
aS'Galactic Structure, Galactic Center'
p5845
aS'Globular Clusters'
p5846
aS'Supernovae & Supernova Remnants'
p5847
aS'HAD I - Special Palomar Session'
p5848
aS'Job Hunting Skills & Career Resources'
p5849
aS"Astronomy Teachers' Workshop I"
p5850
aS'Observing Optical Transients - Sharing Data and Techniques'
p5851
aS'Public Policy Session'
p5852
aS'Novae and Supernovae'
p5853
aS'Microlensing'
p5854
aS'Planets and Comets'
p5855
aS'High-Energy Phenomena'
p5856
aS'Interstellar Medium and Star Formation'
p5857
aS'QSOs and Radio Galaxies'
p5858
aS'Binary Stars'
p5859
aS'Surveys, SETI and Pollution'
p5860
aS'Real Calibrations'
p5861
aS'The Sun and Solar Wind'
p5862
aS'QSOs and Active Galaxies'
p5863
aS'CMB Radiation, Cosmology and Gravity'
p5864
aS'The Interstellar Medium'
p5865
aS'The Sun'
p5866
aS'HAD II - New Telescopes and New Tools'
p5867
aS"Astronomy Teachers' Workshop - II"
p5868
aS'Pierce Prize Lecture:  Ghez'
p5869
aS'Classroom Demos'
p5870
aS'Invited Talk:  Swank'
p5871
aS'Galaxies, Clusters of Galaxies and their Evolution'
p5872
aS'Proto Stars to Supernovae'
p5873
aS'IDEA Grants'
p5874
aS'HAD III - Astronomical Journal Sesquicentennial'
p5875
aS'Planets, Asteroids and Comets'
p5876
aS'Observational Cosmology - Baryons, Mass and Age of The Universe:  Tytler/Carlstrom'
p5877
aS'The Structure and Evolution of The Universe - I'
p5878
aS'RXTE Diagnostics of Active Galactic Nuclei'
p5879
aS'Gamma-ray Burst Counterparts and Afterglows'
p5880
aS'Real Instruments'
p5881
aS'Proposed Instruments and Programs'
p5882
aS'Active Galactic Nuclei'
p5883
aS'X-ray Clusters:  Implications for Cosmology'
p5884
aS'ADS and Expert Assistants'
p5885
aS'Astronomy Education'
p5886
aS'The Interstellar Medium'
p5887
aS'RXTE Diagnostics of Active Galactic Nuclei'
p5888
aS'Structure and Evolution of The Universe'
p5889
aS'Gamma-ray Burst Counterparts and Afterglows'
p5890
aS'Business Meeting'
p5891
aS'The Structure and Evolution of The Universe - II'
p5892
aS'Interstellar Scattering and Scintillation as Tools in Radio Astronomy'
p5893
aS'The Shapley Visiting Lectureship Program'
p5894
aS'Workshop on the Future of Antarctic Astrophysics - I'
p5895
aS'The Frontiers of Far Ultraviolet Astrophysics - I'
p5896
aS'Pulsars in the UV and Visible'
p5897
aS'Galaxy Evolution and the Intergalactic Medium'
p5898
aS'Source Surveys and CMB Radiation'
p5899
aS'SNs, Planetaries and Circumstellar Disks'
p5900
aS'Star Clusters, Kinematics and the Galactic Center'
p5901
aS'New Digital Sky Surveys'
p5902
aS'Frontiers of Ultraviolet Astrophysics'
p5903
aS'Interstellar Scattering and Scintillation as Tools in Radio Astronomy'
p5904
aS'Future of Antarctic Astrophysics'
p5905
aS'NSF Town Meeting'
p5906
aS'Committee on the Status of Women in Astronomy'
p5907
aS"IRAF Users' Group Meeting"
p5908
aS'Workshop on the Future of Antarctic Astrophysics - II'
p5909
aS'The Frontiers of Far Ultraviolet Astrophysics - II'
p5910
aS'New Digital Surveys in the Optical and Near IR:  Technical Challenges and Scientific Opportunities - II'
p5911
aS'Invited Talk:  Shafter'
p5912
aS'Galaxies'
p5913
aS'Stars: Evolution, Atmospheres, Intrinsic'
p5914
aS'Degenerate Stars, Pulsars'
p5915
aS'Starburst Galaxies'
p5916
aS'Cosmic Backgrounds and the Distant Universe'
p5917
aS'Survival Guide for Young Astronomers'
p5918
aS'Cosmic Rays and Abundances'
p5919
aS'Spiral Galaxies'
p5920
aS'Pulsars'
p5921
aS'Invited Talk:  Goldreich'
p5922
aS'NASA Town Meeting'
p5923
aS'Irregular and Star Burst Galaxies'
p5924
aS'X-ray Binaries'
p5925
aS'Special Objects in the Galaxy'
p5926
aS'Education, Green Flashes and Future Missions'
p5927
aS'HAD I:  Exhibiting the History of Astronomy'
p5928
aS'Beyond the Observatory:  Reflections on the Centennial'
p5929
aS'Gamma Ray Bursts'
p5930
aS'Evolution of Galaxies, Galaxy Surveys'
p5931
aS'Star Formation in Dwarfs and Irregulars'
p5932
aS'Interactions, Mergers and Starbursts'
p5933
aS'Spirals and Ellipticals'
p5934
aS'Space Instruments'
p5935
aS'Ground Based Instrumentation'
p5936
aS'HAD IV: Women, Alignments, Biography'
p5937
aS'Cosmic Rays, Supernova and Light Element Production'
p5938
aS'Extra Galactic Star Clusters:  From Ancient Globulars to Young Star Clusters'
p5939
aS'Atmospheres, Winds, Envelopes, Disks and Planetaries'
p5940
aS'Extra-Solar Planets'
p5941
aS'The Solar System'
p5942
aS'Solar Corona'
p5943
aS'Coronal Mass Ejections'
p5944
aS'Far IR/Submillimeter Interferometry in Space'
p5945
aS'Galaxy Clusters and Large Scale Structure'
p5946
aS'Jets, Disks and Dust  in AGN'
p5947
aS'Solar Interior'
p5948
aS'Solar Flares'
p5949
aS'Microflares and Coronal Heating'
p5950
aS'SNRs and the Energetics of ISM'
p5951
aS'HAD II: Celebrating Other Centennials'
p5952
aS'Recent Revolutions in Bayesian and Related Likelihood Techniques:  Progress at the Boundaries of Astronomy and Statistics'
p5953
aS'Russell Prize Lecture:  How Does the Sun Shine?'
p5954
aS'Cosmic Rays, Supernova and Light Element Production'
p5955
aS'White Dwarfs, Neutron Stars and Pulsars'
p5956
aS'Cosmological Probes and Parameters'
p5957
aS'Magnetic Reconnection and Prominence Formation'
p5958
aS'Coronal Holes and Solar Wind'
p5959
aS'HAD III: Gender, Observatories, Planetariums'
p5960
aS'Imaging, Spectra and Variability of X-ray Emission in AGN'
p5961
aS'Star, Cluster, Galaxy Formation and Evolution'
p5962
aS'Hale Prize Lecture:  Why is the Sun Active?'
p5963
aS'Inner Space/Outer Space'
p5964
aS'Cancelled'
p5965
aS'Results from the HST Key Project on the Extragalactic Distance Scale'
p5966
aS'Extragalactic Star Clusters:  From Ancient Globulars to Young Star Clusters'
p5967
aS'Polyatomic Molecules in the Diffuse Interstellar Medium'
p5968
aS'New Views of the Solar Interior'
p5969
aS'My Most Memorable AAS Meeting'
p5970
aS'Computation and Data Analysis'
p5971
aS'Polyatomic Molecules in the Diffuse Interstellar Medium'
p5972
aS"The Sunyaev-Zel'dovich Effect:  Latest Results and Future Prospects"
p5973
aS'Between the Stars I:  The ISM, Galactic and Extragalactic'
p5974
aS'Black Holes Near and Far'
p5975
aS'Observations of Nearby AGN (Seyferts and LINERs)'
p5976
aS'High Angular Resolution Science with the NRAO Very Long Baseline Array'
p5977
aS'Results from the HST Key Project on the Extragalactic Distance Scale'
p5978
aS'White Dwarfs, Neutron Stars and Pulsars'
p5979
aS'Star Clusters Near and Far, Old and Young'
p5980
aS'Solar Flares'
p5981
aS'Active Region Formation and Evolution'
p5982
aS'New Views of the Solar Interior'
p5983
aS'A Centennial Celebration of the Life and Work of George Ellery Hale'
p5984
aS"The Sunyaev-Zel'dovich Effect:  Latest Results and Future Prospects"
p5985
aS'Active Region Formation and Evolution'
p5986
aS'My Most Memorable AAS Meeting'
p5987
aS'Strategic Plans for the Future of Solar Physics (SEC Roadmap and NAS Decadal Survey)'
p5988
aS'High Angular Resolution Science with the NRAO Very Long Baseline Array'
p5989
aS'Evolution of Chemical Abundances over Cosmic Time'
p5990
aS'Shells in the Global ISM'
p5991
aS'Advanced Solar Space Missions'
p5992
aS'Mira Variable Stars'
p5993
aS'Stellar Spectra'
p5994
aS'The Young Ones 1:  Star Formation, Disks and Jets'
p5995
aS'The Young Ones 2:  T-Tauri Stars, H-H Objects and Modeling'
p5996
aS'Astronomy and Education'
p5997
aS'Between the Stars II: The ISM, Galactic and Extragalactic'
p5998
aS'Shells in the Global ISM'
p5999
aS"AGN:  Radio Galaxies, QSO's and Blazars"
p6000
aS'Eta Carinae'
p6001
aS'The Binary Star Community'
p6002
aS'Advanced Solar Space Missions and Ground-based Instruments'
p6003
aS'Here Comes the Sun'
p6004
aS'TRACE and Coronal Heating'
p6005
aS'The Sun Close Up:  Results from the TRACE Mission'
p6006
aS'Here Comes the Sun:  Plans for the Y2K Solar Maximum'
p6007
aS'The Highest Energy Cosmic Rays'
p6008
aS'A Stellar and Variable Star Melange'
p6009
aS'Databases and Datamining'
p6010
aS'Studying the Anatomy of the Milky Way'
p6011
aS'Supernova Remnants and Planetary Nebulae'
p6012
aS'Supernovae and Cataclysmic Variables'
p6013
aS'QSO Absorption Line Systems'
p6014
aS'Large-Scale Structure Surveys'
p6015
aS'Clusters of Galaxies'
p6016
aS'Cosmology and Dark Matter'
p6017
aS'Next Generation Space Telescope'
p6018
aS'Solar Cycle'
p6019
aS'Quiet Photosphere, Chromosphere and Transition Region'
p6020
aS'Quiet Sun Magnetic Fields'
p6021
aS'The Future of the AAS (and of Astronomy)'
p6022
aS"NASA's Vision at the Start of a New Millennium"
p6023
aS'Gamma Ray Bursts, SGRs and Black Holes'
p6024
aS'Next Generation Space Telescope Town Meeting'
p6025
aS'The ISM:  Structure, Composition and Star Formation'
p6026
aS'Quiet Corona and Differential Rotation'
p6027
aS'Coronal Mass Ejections'
p6028
aS"Training the Next Generation of Professionals:  What's New for Majors and Graduate Students"
p6029
aS'Instrumentation, Simulation Databases and Astronomical Organizations'
p6030
aS'Stellar Atmospheres and Variability'
p6031
aS'Georgia \r\n'
p6032
aS'Young Objects and Disks'
p6033
aS'Globular Clusters'
p6034
aS'Stars in the Local Group'
p6035
aS'Looking Towards The Galactic Center'
p6036
aS'Early Results from the FUSE Mission'
p6037
aS'Galaxy Structures and Dynamics: \r\n'
p6038
aS'Dwarf, Irregular and Starburst \r\n'
p6039
aS'Evolution of Galaxies, Galaxy Surveys'
p6040
aS'Multiwavelength Observations \r\n'
p6041
aS'Calibrating the Distance Scales'
p6042
aS'Large-Scale Structure Surveys'
p6043
aS'Cosmological Simulations'
p6044
aS'Early Universe and Cosmology'
p6045
aS'Blazar Variability'
p6046
aS'Blazar and Quasar Variability'
p6047
aS"Quasars, QSO's and Their Environments"
p6048
aS'QSO Absorption Lines'
p6049
aS'NSF CAREERS Awardees'
p6050
aS'Chandra Observations of Active \r\n'
p6051
aS'Galaxies Far and Near'
p6052
aS'Neutrinos and Supernova Remnants'
p6053
aS'Ground-Based \r\n'
p6054
aS'Extrasolar Planets and Substellar \r\n'
p6055
aS'Stars and Disks'
p6056
aS'Compact Objects: Old, New and \r\n'
p6057
aS'Warner \r\n'
p6058
aS'New \r\n'
p6059
aS'Gravitational Lensing, Relativistic \r\n'
p6060
aS'Finding Clusters of Galaxies: \r\n'
p6061
aS'Star Formation in Nearby Spirals: \r\n'
p6062
aS'Young \r\n'
p6063
aS'SNRs and Other Stellar Ejecta'
p6064
aS'Large \r\n'
p6065
aS'Rossi \r\n'
p6066
aS'White Dwarfs New and Old'
p6067
aS'Stellar Mass Black Holes'
p6068
aS'Supernovae: Near and Far'
p6069
aS'Neutron Stars with Partners'
p6070
aS'White Dwarfs Cataclysmically \r\n'
p6071
aS'Isolated Neutron Stars'
p6072
aS'FLASHy Results'
p6073
aS'SN 1987A and Other Supernova \r\n'
p6074
aS'Late Stages of Stellar Evolution'
p6075
aS'Stellar Diameters and Circumstellar \r\n'
p6076
aS'Space Interferometry Mission'
p6077
aS'Open Clusters, Hot Stars, and \r\n'
p6078
aS'Lensing'
p6079
aS'Molecules, Masers, and Star Formation'
p6080
aS'Stellar Atmospheres'
p6081
aS'ISM: Theory and Modelling'
p6082
aS'Absorption in the Intergalactic \r\n'
p6083
aS'ISM: Ionized Gas'
p6084
aS'<FONT COLOR="#FF6600">HEAD \r\n'
p6085
aS'Cosmological Parameters and the \r\n'
p6086
aS'Active Galaxies at Several Wavelengths'
p6087
aS'Galaxies: Clusters, Lensing, \r\n'
p6088
aS'Solar System'
p6089
aS'New \r\n'
p6090
aS'Highlights \r\n'
p6091
aS'<FONT COLOR="#FF6600">HEAD \r\n'
p6092
aS'Sgr A* and Milky Way'
p6093
aS'First \r\n'
p6094
aS'Clusters of Galaxies'
p6095
aS'Unification and Temporal Evolution \r\n'
p6096
aS'Young Stars and Clusters'
p6097
aS'Processes \r\n'
p6098
aS'Pierce \r\n'
p6099
aS'High Energy Astrophysics'
p6100
aS'Elliptical Galaxies and X-Rays'
p6101
aS'Gamma Ray Bursts (and the Swift \r\n'
p6102
aS'ISM: Neutral Gas'
p6103
aS'ISM: Molecular Gas'
p6104
aS'ISM: Dust'
p6105
aS'Intrinsic Variable Stars'
p6106
aS'Geometrically Variable Stars'
p6107
aS'Stellar Masses'
p6108
aS'Young Stars, Disks and Planets'
p6109
aS'Young Stars and Clusters'
p6110
aS'Catalogs and Surveys'
p6111
aS'Databases and Techniques'
p6112
aS'Data Handling'
p6113
aS'Radio Observations and Techniques'
p6114
aS'Submillimeter Wave Astronomy \r\n'
p6115
aS'HST'
p6116
aS'NGST'
p6117
aS'Ground-Based Observatories and \r\n'
p6118
aS'Space Missions and Techniques'
p6119
aS'Blazar \r\n'
p6120
aS'Gas in Galaxies'
p6121
aS'Drizzling Down the Potential \r\n'
p6122
aS'Missions: From Stonehenge to \r\n'
p6123
aS'Keck Adaptive Optics'
p6124
aS"NASA's Space Science Education \r\n"
p6125
aS'Public \r\n'
p6126
aS'First \r\n'
p6127
aS'Gas and Stars In and Near Galaxies'
p6128
aS'Quasars and Their Cousins'
p6129
aS'Early-type Galaxies'
p6130
aS'Electronic Publishing'
p6131
aS'Astronomy Education'
p6132
aS'Galaxies \r\n'
p6133
aS'The \r\n'
p6134
aS'Dust and Star Formation in \r\n'
p6135
aS'Observations, Outreach and \r\n'
p6136
aS'Education'
p6137
aS'The Sun'
p6138
aS'Asteroids, etc.'
p6139
aS'Extrasolar Planets and Low \r\n'
p6140
aS'Planetary Nebulae'
p6141
aS'Eta Carinae'
p6142
aS'Chandra'
p6143
aS'Ground-Based Optical/IR Interferometry'
p6144
aS'Robotic Telescopes'
p6145
aS'Seyferts and Other Mildly Active \r\n'
p6146
aS'Radio Galaxies and Their Jets'
p6147
aS'Active Galactic Nuclei: Modelling \r\n'
p6148
aS'Supermassive Black Holes'
p6149
aS'The SIRTF Legacy Science Program'
p6150
aS'Clusters of Galaxies and Their \r\n'
p6151
aS'The \r\n'
p6152
aS'Small, \r\n'
p6153
aS'<FONT COLOR="#CC33CC">HAD:</font> \r\n'
p6154
aS'MACHOS \r\n'
p6155
aS'Cosmology and Large-Scale Structure'
p6156
aS'Drizzling Down the Potential \r\n'
p6157
aS'Variable Stars'
p6158
aS'Molecular Clouds and Star Formation'
p6159
aS'Formation and Distribution \r\n'
p6160
aS'<FONT COLOR="#CC33CC">HAD:</font> \r\n'
p6161
aS'Planetary Rings: a Brief History of Observation and Theory'
p6162
aS'Searching for and Characterizing Extra Solar Planets'
p6163
aS'Dwarf Stars'
p6164
aS'Young Stars and Their Environments'
p6165
aS'Be Star and Other Atmosphere Studies'
p6166
aS'Cosmology and Large Scale Structure'
p6167
aS'Gravitational Lensing and Dark Matter'
p6168
aS'Light Pollution, Observing Conditions'
p6169
aS'Automated Telescopes'
p6170
aS'Professional-Amateur Observational Programs'
p6171
aS'Small Bodies in the Solar System and Beyond'
p6172
aS'Amateur-Professional Collaboration in Astronomy'
p6173
aS'EUVE'
p6174
aS'SOFIA, Clusters, Education and History'
p6175
aS'Report of the Astronomy and Astrophysics Survey Committee'
p6176
aS'Galaxies and Quasars'
p6177
aS'Stellar Remnants'
p6178
aS'Astronomy Education Research'
p6179
aS'Scientific Results from Automated Telescopes'
p6180
aS'Stellar Populations'
p6181
aS'Supermassive Blackhole Research and Advances with STIS'
p6182
aS'Ushering in a New Era:  Laboratory Astrophysics with Intense Lasers'
p6183
aS'Next Generation Space Telescope'
p6184
aS'Education, History'
p6185
aS'The Milky Way Galaxy'
p6186
aS'The Galactic ISM: Observations and Modelling'
p6187
aS'The ISM of Extragalactic Sources and The Outer Galaxy'
p6188
aS'Nearby Galaxies'
p6189
aS'Dwarf Galaxies, Galaxy Structure and Kinematics'
p6190
aS'Expanded Very Large Array (EVLA)'
p6191
aS'NGST'
p6192
aS'Space Instrumentation'
p6193
aS'General Investigator Science Program with SOFIA'
p6194
aS'A New Era in X-ray Astronomy'
p6195
aS'High Resolution Spectroscopy at Visible and Ultraviolet Wavelengths'
p6196
aS'Exploring Dust and the ISM with SIRTF'
p6197
aS'X-Ray Results from Chandra and XMM'
p6198
aS'Neutron Stars and Black Holes'
p6199
aS'Gamma Ray Bursters: Supernovae and Their Remnants'
p6200
aS'High Resolution Spectroscopy at Visible and Ultraviolet Wavelengths'
p6201
aS'Globular Clusters'
p6202
aS'Open Clusters'
p6203
aS'Planetary Nebulae and Their Progenitors'
p6204
aS'Bipolar Outflows: Imaging and Theory'
p6205
aS'Cataclysmic Variable Stars, Old and Young'
p6206
aS'Binary and Variable Stars'
p6207
aS'Bipolar Outflows Across the HR Diagram'
p6208
aS'Adaptive Optics for the Human Eye'
p6209
aS'Solar System Objects and The Sun'
p6210
aS'Active Galaxies'
p6211
aS'Galaxy Evolution and Populations/Clusters'
p6212
aS'Ground Based Instrumentations'
p6213
aS'Surveys, Catalogs, Database'
p6214
aS'Applications of Statistics'
p6215
aS'Cosmology and Large-Scale Structure'
p6216
aS'Evolution of Galaxies Using Large Multicolor Samples'
p6217
aS'Supernovae Here and There, Dust Destruction and Star Formation Topics'
p6218
aS'Hale Prize Lecture: Shapes, Colors and Motions on the Sun'
p6219
aS'High-Energy Observations'
p6220
aS'New Statistics for New Missions: Problems and Opportunities for Breakthrough Thinking'
p6221
aS'<FONT COLOR="#CC33CC">HAD I:</FONT> Boners of the Century'
p6222
aS'Heineman Prize Lecture'
p6223
aS'QSO Absorbers and the IGM'
p6224
aS'The Milky Way Galaxy'
p6225
aS'Molecular Clouds and Cloud Cores'
p6226
aS'Planetary Nebulae: Young and Old'
p6227
aS'Gas in the Galactic ISM'
p6228
aS'Circumstellar Matter and Winds'
p6229
aS'CVs: UV and IR Data'
p6230
aS'Low Mass Star Formation'
p6231
aS'Extrasolar Planets and Very Low Mass Stars'
p6232
aS'Hubble Space Telescope: Instruments and Data Reduction'
p6233
aS'Early Science from the Sloan Digital Sky Survey'
p6234
aS'New Space Missions and Instrumentation'
p6235
aS'Optical and IR: Small Telescopes, Instrumentation and Processing'
p6236
aS'New Results from Back to Basics Data Analysis'
p6237
aS'Frontiers of Astrophysics IV'
p6238
aS'Star Forming Regions'
p6239
aS'Frontiers of Astrophysics I'
p6240
aS'Galaxy Formation and Chemical Evolution'
p6241
aS'AGN Kinematics'
p6242
aS'New Results from ``Back-to-Basics" Data Analysis: Special Tutorials on Timing and Fitting'
p6243
aS'<FONT COLOR="#CC33CC">HAD II</FONT>'
p6244
aS'Star Clusters and Binaries'
p6245
aS'Gamma Ray Bursts: Localization and Identification'
p6246
aS'Frontiers of Astrophysics II'
p6247
aS'Early Science from the Sloan Digital Sky Survey'
p6248
aS'Kinematics, ISM and Star Formation in the Local Group'
p6249
aS'Protostellar Outflows'
p6250
aS'Dwarf and Elliptical Galaxies'
p6251
aS'Solar System and The Sun'
p6252
aS'Warner Prize Lecture'
p6253
aS'Pierce Prize Lecture'
p6254
aS'Sunlight and Ice Crystals in the Skies of Antarctica'
p6255
aS'Russell Lecture'
p6256
aS'Deuterium Abundance in ISM: First <i>FUSE</i> Results'
p6257
aS'Galaxy Interactions and Dynamics'
p6258
aS'Gas in External Galaxies'
p6259
aS'Polarimetry and Variability in AGN'
p6260
aS'REU: Instrumentation, Star Clusters and Galaxies'
p6261
aS'Star Clusters and Associations'
p6262
aS'Dust and Theory of ISM'
p6263
aS'High Mass Star Formation'
p6264
aS'Observations and Analysis of Stellar Atmospheres'
p6265
aS'Stellar Interferometry'
p6266
aS'Variable Stars'
p6267
aS'Circumstellar Disks'
p6268
aS'REU: Solar System and Stars'
p6269
aS'The Formation, Evolution and Detection of Habitable Planets'
p6270
aS'Studies of Solar System Objects'
p6271
aS'The Sun'
p6272
aS'Science with Adaptive Optics'
p6273
aS'Instruments and Techniques: Submillimeter to Radio'
p6274
aS'Education and Public Outreach'
p6275
aS'The Cosmic Microwave Background'
p6276
aS'Frontiers of Astrophysics III'
p6277
aS'Galaxy Clusters: Galaxy Evolution'
p6278
aS'Barred and Edge-on Galaxies'
p6279
aS'The Interstellar Medium'
p6280
aS'Stars and Stellar Atmospheres'
p6281
aS'Dark Energy, Cosmology, and the SNAP Mission'
p6282
aS'Detecting and Characterizing Extrasolar Planets'
p6283
aS'Gamma Ray Sources, Supernovae and Supernova Remnants'
p6284
aS'Science with Adaptive Optics'
p6285
aS'Galaxy Evolution: High Redshift'
p6286
aS'When the Universe was Mostly Gas'
p6287
aS'New Technology and Its Achievements I'
p6288
aS'The Hot and the Blue'
p6289
aS'Star Streams in the Milky Way - Fragments of its History'
p6290
aS'The Formation, Evolution and Detection of Habitable Planets'
p6291
aS"Einstein's Biggest Blunder? The Case for an Accelerating Universe"
p6292
aS'Cosmology from z=1100 to 1'
p6293
aS'Gamma Ray Bursts Observations and Analysis'
p6294
aS'Surveys for Active Galaxies'
p6295
aS'Jets in AGN'
p6296
aS'Galaxy Evolution I'
p6297
aS'Galaxy Evolution II'
p6298
aS'Nearby Galaxies I'
p6299
aS'Nearby Galaxies II'
p6300
aS'<FONT COLOR="#FF6600">HEAD Contributions:</FONT> Pulsars to X-ray Clusters'
p6301
aS'Supernovae and Nova Theory'
p6302
aS'Supernova Remnants: Multispectral Observations'
p6303
aS'Compact Objects'
p6304
aS'X-ray Binaries'
p6305
aS'CVs: Optical Observations and Theory'
p6306
aS'Innovations in Teaching Astronomy I'
p6307
aS'Innovations in Teaching Astronomy II'
p6308
aS'<FONT COLOR="#FF6600">HEAD I:</FONT> High Resolution Views of Compact Objects'
p6309
aS'Large Scale Structure and Galaxy Clusters'
p6310
aS'Multiwavelength Surveys for AGN'
p6311
aS'Disks around YSOs'
p6312
aS'Star Formation in Nearby Galaxies'
p6313
aS'New Technology and its Achievements II'
p6314
aS'<FONT COLOR="#FF6600">HEAD II:</FONT> High Energy Constraints on Extended Structures'
p6315
aS'Cosmological Parameters and Evolution'
p6316
aS'Galaxy Evolution: Low Redshift Traces'
p6317
aS'Evolved Stars'
p6318
aS'Innovations in Teaching Astronomy II'
p6319
aS'The Expanded VLA'
p6320
aS'Unveiling the Dusty Universe at Submillimeter and X-ray Wavelengths'
p6321
aS'Rossi Prize Lecture'
p6322
aS'The Road from Foolishness to Fraud'
p6323
aS'The Great Copernican Clich&eacute;'
p6324
aS'The Cosmic Distance Scale'
p6325
aS'Gravitational Lensing'
p6326
aS'Galaxy Clusters and Large-Scale Structure I'
p6327
aS'Galaxy Clusters and Large Scale Structure II'
p6328
aS'Radio Observations of Active Galaxies'
p6329
aS'AGN Host Galaxies'
p6330
aS'AGN Emission and Absorption Properties'
p6331
aS'Galaxy Morphology and Structure'
p6332
aS'The Magellanic Clouds'
p6333
aS'Stars and Clusters in the Galaxy and Local Group'
p6334
aS'Evolution of Stars'
p6335
aS'At the Observatory: UV and Sky Conditions'
p6336
aS'Virtual Observatory: Data, Services, Tools and Software'
p6337
aS'Galaxy Evolution: The Hubble Deep Fields'
p6338
aS'Binary Systems with Black Holes and Neutron Stars'
p6339
aS'The Cosmic Distance Scale'
p6340
aS'Innovations in Teaching Astronomy III'
p6341
aS'Committee on the Status of Women in Astronomy'
p6342
aS'Towards the National (and Global) Virtual Observatory'
p6343
aS'Early Universe, Cosmic Evolution and the Alternative'
p6344
aS'Galaxy Clusters: Masses and X-ray Properties'
p6345
aS'Jets and Variability in AGN and Radio Galaxies'
p6346
aS'Compact Objects and Accretion Systems'
p6347
aS'Low Mass Stars, Planetary Formation'
p6348
aS'Walter Baade:  Father of the Two Stellar Populations and Pioneer Supernova Researcher'
p6349
aS'First Science Results from the Gemini North Telescope'
p6350
aS'Analysis, Data and Distances'
p6351
aS'Instruments: Real and Proposed'
p6352
aS'Ground Based Instruments and Surveys'
p6353
aS'The Early Universe'
p6354
aS'Clusters of Galaxies and Large Scale Structure'
p6355
aS'Normal Galaxies: Stellar Pops, ISM and Dynamics'
p6356
aS'Dwarf, Irregular and Starburst Galaxies'
p6357
aS'Black Holes'
p6358
aS'Cataclysmic Variables, Novae'
p6359
aS'Neutron Stars, White Dwarfs'
p6360
aS'Planetary Nebulae'
p6361
aS'Old Stars and the Material Around Them'
p6362
aS'Education: Projects, Techniques and Outreach'
p6363
aS'Outstanding Programs in Education and Public Outreach'
p6364
aS"Galaxies: Chandra's Perspective"
p6365
aS'Protostellar Disks'
p6366
aS'First Science Results from the Gemini North Telescope'
p6367
aS'Galaxian Grab-bag'
p6368
aS'Cosmology and Dark Matter'
p6369
aS'A Variety of Stellar Properties'
p6370
aS'Outstanding Programs in Education and Public Outreach'
p6371
aS"SIRTF's First Year:  Science Plans and Science Opportunities"
p6372
aS'A Preview of the SIRTF Legacy Science Program'
p6373
aS'Galaxy Clusters and the Intergalactic Medium'
p6374
aS'Neutron Stars, Pulsars Gamma ray Bursts'
p6375
aS'Winds and Outflows'
p6376
aS'Committee on the Status of Women in Astronomy'
p6377
aS'Education and Instrumentation'
p6378
aS'Nearby Young Stars and Star Clusters: The IMF, Brown Dwarfs, and Prospects for Planet Formation'
p6379
aS'Recent Results from the Chandra X-ray Observatory'
p6380
aS'The Big Picture:  Latest Science Results from 2MASS'
p6381
aS'Interacting Galaxies: A Multi-wavelength Look at their Role in Galactic and Cosmic Evolution'
p6382
aS'GRBs: A Mystery and a Tool'
p6383
aS'Interacting Galaxies'
p6384
aS'Gravitational Lenses, Relativistic Astrophysics'
p6385
aS'GRBs: A Mystery and a Tool'
p6386
aS'Supernovae'
p6387
aS'Supernova Remnants'
p6388
aS'The Milky Way Galaxy'
p6389
aS'Star Clusters'
p6390
aS'Stellar Evolution'
p6391
aS'Stellar Spectroscopy and Related Results'
p6392
aS'Stellar Observations with FUSE'
p6393
aS'Variable and Binary Stars - Photometry'
p6394
aS'Variable and Binary Stars - Spectroscopy'
p6395
aS'YSOs'
p6396
aS'Latest Results from 2MASS'
p6397
aS'Intermediate-luminosity X-ray Objects and Intermediate Mass Black Holes'
p6398
aS'Optical Interferometry'
p6399
aS'The Cosmological Impact of Galactic Winds'
p6400
aS'Cluster Properties and Large Scale Structure: New Correlations'
p6401
aS'Galaxy Evolution and Surveys'
p6402
aS'Measuring the History of Star Formation using the Rest Ultraviolet'
p6403
aS'Intermediate-Luminosity X-ray Objects and Intermediate Mass Black Holes'
p6404
aS'Cosmological Impact of Galactic Winds'
p6405
aS'The Intergalactic Medium'
p6406
aS'Galactic ISM'
p6407
aS'Galactic Halo'
p6408
aS'Optical Interferometry I - CHARA'
p6409
aS'Optical Interferometry II - SIM, TPF'
p6410
aS'Optical Interferometry III'
p6411
aS'Laboratory Astrophysics'
p6412
aS'Computational Astrophysics'
p6413
aS'Cluster Properties and Large Scale Structure'
p6414
aS'Measuring the History of Star Formation Using the Rest Ultraviolet'
p6415
aS'Hale Prize Lecture'
p6416
aS'Planet Searchs and Dwarfs'
p6417
aS'Planets, Comets and Beyond'
p6418
aS'The Sun'
p6419
aS'Seyfert Galaxies'
p6420
aS'Radio Galaxies'
p6421
aS'QSOs'
p6422
aS'Observing with the Upgraded Arecibo Telescope'
p6423
aS'Beyond SIRTF/SOFIA/Herschel: New Generation FIR Telescopes'
p6424
aS'The Promise and Pitfalls of High Contrast Imaging'
p6425
aS'A New Look at Quasars - Recent Results from the SDSS'
p6426
aS'Galaxy Surveys'
p6427
aS'Black Holes, Supernovae, Supernova Remnants'
p6428
aS'Dwarf, Irregular, and Starburst Galaxies'
p6429
aS'Beyond SIRTF/SOFIA/Hershel: New Generation FIT Telescopes'
p6430
aS'The Promise and Pitfalls of High Contrast Imaging'
p6431
aS'Supermassive Black Holes: From the Sublime to the Ordinary'
p6432
aS'Bars and Black Holes in Galaxies'
p6433
aS'The Sun, Extrasolar Planets and Dwarf Stars'
p6434
aS'Galactic Star Forming Regions'
p6435
aS'Seyfert Galaxies and QSOs'
p6436
aS'Observing with the Upgraded Arecibo Telescope:  Methods and Recent Results'
p6437
aS'Turbulence'
p6438
aS'<FONT COLOR="#CC33CC">HAD I</FONT>: New Views of Historical Research in the 21st Century'
p6439
aS'Why Study Nearby Galaxies?'
p6440
aS'Exoplanets, Dynamics and Earth'
p6441
aS'Star-Forming Environments'
p6442
aS'Stellar and Intermediate Mass Black Holes'
p6443
aS'Binary Stars'
p6444
aS'Galaxies - Surveys I'
p6445
aS'Instruments for HST and NGST'
p6446
aS'Space Interferometry and Planet Finders'
p6447
aS'Data Centers, NVO and Catalogs'
p6448
aS'Interstellar Medium - I'
p6449
aS'Gamma Ray Bursts'
p6450
aS'FUSE and Friends: New Results'
p6451
aS'Star Clusters in External Galaxies'
p6452
aS'<FONT COLOR="#CC33CC">HAD IV</FONT>: New Views of Historical Topics'
p6453
aS'Cosmology and Lensing'
p6454
aS'Pulsars, White Dwarfs and Galactic Gamma Ray Sources'
p6455
aS'High Velocity Clouds and The Intergalactic Medium'
p6456
aS'Chandra Observations of Nearby Galaxies'
p6457
aS'Elliptical Galaxies'
p6458
aS'Dwarf Galaxies'
p6459
aS'Astronomy Education Resources'
p6460
aS'Astronomy Education'
p6461
aS'Cosmology'
p6462
aS'Black Holes, Dark Matter and X-ray Sources in Extragalactic Systems'
p6463
aS'Gamma Ray Bursts'
p6464
aS'White Dwarfs and Neutron Stars'
p6465
aS'Solar System: Dynamics and Collisions'
p6466
aS'Intergalactic Medium and QSO Absorption Line Systems'
p6467
aS'Recommendations of ``Enhancing the Postdoctoral Experience for Scientists and Engineers"'
p6468
aS'<FONT COLOR="#CC33CC">HAD II</FONT>: The Development of American Astrophysics: Ideas, Instruments, Observatories and Astronomers'
p6469
aS'Russell Lecture'
p6470
aS'Extra-Solar Planets'
p6471
aS'Cosmic Microwave Background Anisotropy and Dark Matter'
p6472
aS'Galaxies I'
p6473
aS'Some Impacts of Solar Irradiance Variation on Terrestrial Climate'
p6474
aS'From Cloud Cores to Star Clusters'
p6475
aS'How NSF Works'
p6476
aS'Stellar Remnants and Cataclysmic Variables'
p6477
aS'<FONT COLOR="#CC33CC">HAD III</FONT>: Some Controversies in the History of Astronomy'
p6478
aS'New Views of Galactic Nucleosynthesis and Supernova Remnants'
p6479
aS'Heineman Prize Lecture'
p6480
aS'AGN - IR and Starbursts'
p6481
aS'SIRTF and Infrared Space Instruments'
p6482
aS'Instrumentation for Space Observations'
p6483
aS'M-31: A Multiwavelength Look'
p6484
aS'Type IA Supernovae'
p6485
aS'Public Outreach and Astronomy Resources'
p6486
aS'Starburst Galaxies'
p6487
aS'Seyfert Galaxies'
p6488
aS'Radio Galaxies'
p6489
aS'Structure and Kinematics of Spiral Galaxies'
p6490
aS'Galaxies - Evolution'
p6491
aS'Galaxies - Various'
p6492
aS'Galaxies - Surveys II'
p6493
aS'Globular Clusters'
p6494
aS'Open Clusters'
p6495
aS'Interstellar Medium - II'
p6496
aS'Dust'
p6497
aS'Star Formation - Accretion and Outflow'
p6498
aS'Stars: Dwarfs and Companions'
p6499
aS'Dwarf Novae and Other Cataclysmic  Variables'
p6500
aS'Solar System'
p6501
aS'Overview of The Supernova/Acceleration Probe'
p6502
aS'FUSE Only'
p6503
aS'Extra-Solar Planets and Vega'
p6504
aS'Supernovae'
p6505
aS'AGN'
p6506
aS'Clusters of Galaxies - I'
p6507
aS'Goals and Strategies for Astronomy 101'
p6508
aS'Committee on the Status of Minorities in Astronomy'
p6509
aS'Properties and Structure of Extragalactic Systems'
p6510
aS'Square Kilometer Array'
p6511
aS'Public Policy'
p6512
aS'Gravitational Lensing and Cosmic Distances'
p6513
aS'Disks and Outflows of Young Stellar Objects'
p6514
aS'QSOs'
p6515
aS'Surveys and Evolution of Nearby Galaxies'
p6516
aS'Star Clusters'
p6517
aS'The Astronomy Diagnostic Test: Development, Results and Applications'
p6518
aS'High Angular Resolution: Low Frequency Radio Astronomy'
p6519
aS'Astrobiology - The Search for Life Beyond Earth'
p6520
aS'Rossi Prize Lectures'
p6521
aS'Supernovae Surveys'
p6522
aS'The Galactic Center'
p6523
aS'Extra-Solar Planet Astronomy from the Present to TPF'
p6524
aS'Interacting Galaxies'
p6525
aS'Our Favorite Star'
p6526
aS'Young Stars - Surveys, Associations and Binaries'
p6527
aS'$\\delta$ Scuti and Mira Variables'
p6528
aS'Stellar Populations and Galactic Structure'
p6529
aS'Circumstellar Material and Atmospheres: Cooler'
p6530
aS'Data Analysis Challenges in Solar Stellar Astrophysics'
p6531
aS'Type II Supernovae'
p6532
aS'Accreting Neutron Stars'
p6533
aS'Associations, Young Massive Clusters'
p6534
aS'Interstellar Medium - III'
p6535
aS'Blazars and Other AGN Jets'
p6536
aS'AGN - Narrow Line and Broad Line'
p6537
aS'Galaxy Clusters and Mergers'
p6538
aS'DPOSS, LONEOS, LSST and DLS: New Survey Results'
p6539
aS'Instrumentation for the Optical and Infrared'
p6540
aS'Instrumentation for Radio Wavelengths'
p6541
aS'Light Pollution Issues'
p6542
aS'<FONT COLOR="#FF6600">HEAD I</FONT>: Measuring Neutron Star Radii vi Thermal Emission: Constraining the Nuclear Equation of State'
p6543
aS'Deep-Fields and High-Z Galaxies'
p6544
aS'Policy Insider Panel'
p6545
aS'Black Holes'
p6546
aS'Galactic Center and Milky Way Formation'
p6547
aS'Nucleosynthesis and Dust Formation'
p6548
aS'Science with Wide Field Imaging in Space'
p6549
aS'Data Analysis Challenges in Solar and Stellar Astrophysics'
p6550
aS'Pierce Prize Lecture'
p6551
aS'<FONT COLOR="#FF6600">HEAD II</FONT>: Gravitational Wave and High Energy Astrophysics'
p6552
aS'Extra-Solar Planet Astronomy from the Present to TPF'
p6553
aS'Cosmology with SNAP'
p6554
aS'Star Formation and the ISM at Galactic Scales'
p6555
aS'Galaxies II'
p6556
aS'Magnetars and Pulsars'
p6557
aS'Protecting Local Dark-Sky Areas and Sky Brightness as a Part of Education in Astronomy'
p6558
aS'Frontiers in High Energy Astrophysics'
p6559
aS'Warner Prize Lecture'
p6560
aS'NOAO Deep Wide Field Survey'
p6561
aS'H II Regions'
p6562
aS'Dark Matter'
p6563
aS'Supernova Remnants'
p6564
aS'The In Focus Telescope'
p6565
aS'ISO Spectra'
p6566
aS'Astrometric Surveys'
p6567
aS'Surveys, Surveys'
p6568
aS'QSO Absorption Lines'
p6569
aS'AGN - Modeling'
p6570
aS'Variable Stars: Searchers, Data, Analysis'
p6571
aS'Formation of Massive Stars'
p6572
aS'Circumstellar Material and Atmospheres: Hotter'
p6573
aS'Planetary Nebulae'
p6574
aS'Topics in Stellar Evolution'
p6575
aS'AGN - Surveys'
p6576
aS'Distance Scale'
p6577
aS'Recent Results from Chandra Deep Surveys - I'
p6578
aS'AGN and non-AGN Populations and Unification'
p6579
aS'Clusters of Galaxies - II'
p6580
aS'Stellar Spectroscopy'
p6581
aS'Government Relations Issues Panel'
p6582
aS'Astronomical Instruments and Analytical Tools'
p6583
aS'Our Favorite Star'
p6584
aS'New Perspectives on Cosmological Structure Formation'
p6585
aS'Recent Results from Chandra Deep Surveys - II'
p6586
aS'Molecular Clouds, Cloud Cores, and Their Magnetic Fields'
p6587
aS'Particular AGNs and Seyferts'
p6588
aS'Structure and Composition of The ISM'
p6589
aS'Variable Stars'
p6590
aS'Stellar Populations and Dynamics in Extragalactic Systems'
p6591
aS'The Undergraduate Astronomy Major: What and Why?'
p6592
aS'New Results on the Highest Energy Cosmic Rays'
p6593
aS'Coronal Plasmas'
p6594
aS'Solar Magnetic Fields'
p6595
aS'Helioseismology and the Solar Interior'
p6596
aS'AGN and Quasars'
p6597
aS'Cosmology, The Early Universe'
p6598
aS'Variable Stars and Relatives'
p6599
aS'Binary Stars'
p6600
aS'Open Clusters and Their Constituents'
p6601
aS'Globular Star Clusters'
p6602
aS'Nearby Stars and Low Mass Dwarfs'
p6603
aS'Planets and Comets'
p6604
aS'Astronomy Education'
p6605
aS'Supernovae'
p6606
aS'SNRs and PNe'
p6607
aS'Atmospheric Heating and Dynamics I'
p6608
aS'AGN, QSOs and Active Galaxies'
p6609
aS'Research and Education: NSF Astronomy and Astrophysics Postdoctoral Fellowships (AAPF) Program'
p6610
aS'Instrumentation from Space Observations'
p6611
aS'Pre-eruptive Magnetic Structures'
p6612
aS'Very High Energy Gamma-ray and Neutrino Astronomy'
p6613
aS'Extra Galactic Magnetic Fields: Their Origin and Manifestation through Structure of Quasars, Radio Lobes and within Clusters'
p6614
aS'Public Policy'
p6615
aS'HST - ACS Early Results and Galaxy Clusters'
p6616
aS'Gamma Rays, GRB Afterglows'
p6617
aS'Quo Vadis Astronomy Education'
p6618
aS'Properties and Evolution of Galaxies'
p6619
aS'Living with A Star'
p6620
aS'Eruptive Flares/CMEs'
p6621
aS'Mining the Sky in Real Time'
p6622
aS'Magnetic Fields in the Solar System'
p6623
aS'Core-Collapse of Massive Stars: Supernovae and Gamma-Ray Bursts'
p6624
aS'Gaseous Galaxy Halos and Edges of Disk Galaxies'
p6625
aS'Understanding Solar Magnetism, the Advanced Technology Solar Telescope'
p6626
aS'Supernova Remnants in Nearby Galaxies'
p6627
aS'The Magnetic Structure of CMEs'
p6628
aS'CMEs and Prominences'
p6629
aS'Solar Photosphere, Chromosphere and Transition Region'
p6630
aS'Structure and Dynamics of Chromospheres'
p6631
aS'Evolution of Galaxies, Galaxy Surveys, IGM'
p6632
aS'Clusters of Galaxies, Large Scale Structure'
p6633
aS'Gaseous Galaxy Halos and Galaxy Edges'
p6634
aS'Galaxies'
p6635
aS'The Milky Way: Center and Halo'
p6636
aS'The New Radio Universe'
p6637
aS'Astrophysics in the Local Group'
p6638
aS'Telescopes and Education'
p6639
aS'Public Outreach'
p6640
aS'New Frontiers in Solar and Space Weather Radiophysics'
p6641
aS'Cosmological Models and Instrumentation from Low Temperature Physics'
p6642
aS'The New Radio Universe'
p6643
aS'The Future of Extreme Ultraviolet Astronomy'
p6644
aS'Structure and Dynamics of Chromospheres'
p6645
aS'Angular Momentum Evolution of Young Stars'
p6646
aS'Solar Data Analysis and Calibration'
p6647
aS'Solar Instrumentation'
p6648
aS'Living with a Star'
p6649
aS'Source Surveys, Catalogs, Database Techniques'
p6650
aS'Computational Techniques and Data Handling'
p6651
aS'Building a Virtual Observatory'
p6652
aS'The Future of Extreme Ultraviolet Astronomy'
p6653
aS'HST Instrumentation'
p6654
aS'Future Airborne and Space Instruments'
p6655
aS'New Developments in Ground Based Instrumentation'
p6656
aS'The Magnetic Structure of CMEs'
p6657
aS'Space Debris: Natural, Cosmic and Manmade'
p6658
aS'Hale Prize Lecture'
p6659
aS'Flares'
p6660
aS'First Results from RHESSI'
p6661
aS'Angular Momentum Evolution and Young Stars'
p6662
aS"Stellar Youth: Tomorrow's Degenerates"
p6663
aS'Degenerates'
p6664
aS'Interim Stellar Materials: Gas, Dust and Clouds'
p6665
aS'Stellar Atmospheres and Circumstellar Material'
p6666
aS'Novae and Cataclysmics'
p6667
aS'First Results from RHESSI'
p6668
aS'Large Scale Structure with the SDSS'
p6669
aS'ISM, SNR, AGB and PNe'
p6670
aS'Helioseismology and the Solar Interior'
p6671
aS'Neutron Stars, Relativity, MHO'
p6672
aS'Astronomy Education and Public Outreach'
p6673
aS'Formation and Evolution of Solar System Bodies'
p6674
aS'Heineman Prize Lecture'
p6675
aS'High Energy Processes in Normal Galaxies: A Multi-wavelength Look'
p6676
aS'Stars: Disks, Shells and Variability'
p6677
aS'Cosmology and IGM'
p6678
aS'Building a Virtual Observatory'
p6679
aS'Atmospheric Heating and Dynamics II'
p6680
aS'Solar Internal Structure and Dynamics'
p6681
aS'<FONT COLOR="#CC33CC">HAD I</FONT>: Special Topics in the History of Astronomy'
p6682
aS'Well Defined Areas of Doubt and Uncertainty in M Dwarf Astrophysics'
p6683
aS'Mass, Temperature and Cooling Flows in Clusters'
p6684
aS'Eclipsing and Spectroscopic Binaries'
p6685
aS'Galaxy Clusters and Cosmology'
p6686
aS'The GOODS and Those HEROs'
p6687
aS'Globular Clusters and Their Contents'
p6688
aS'Catalogs and Databases'
p6689
aS'Virtual Observatories and Online Resources'
p6690
aS'Telescopes and Observatories for Education and Outreach'
p6691
aS'Seyfert Galaxies and AGNs'
p6692
aS'Activity in Cool Stars'
p6693
aS'Galaxy - Structure'
p6694
aS'Galaxy - Contents'
p6695
aS'Black Holes Observed and Modeled'
p6696
aS'Stars in SDSS'
p6697
aS'Stellar Evolution and Metal-Poor Stars'
p6698
aS'Instrumentation for Infrared and Optical Observing'
p6699
aS'Interferometer'
p6700
aS'Star Formation I'
p6701
aS'Planetary Systems: Instrumentation and Surveys'
p6702
aS'Highly Structured Outflows from Post MS-Stars'
p6703
aS'Cosmology: The Fundamental Parameter'
p6704
aS'Planetary Systems I'
p6705
aS'Circumstellar Material and Mass Loss'
p6706
aS'Galaxy Structure and Interactions'
p6707
aS'Stars, Gas, and Dust in the Milky Way'
p6708
aS'Astronomy Education and Public Outreach'
p6709
aS'<FONT COLOR="#CC33CC">HAD II</FONT>: History of IDEAS on Extraterrestrial Life'
p6710
aS'Public Policy: A Canadian Vision of International Astronomy and Astrophysics'
p6711
aS'The Galactic Center and Its Environs'
p6712
aS'Galaxy Evolution and Surveys: ``Far Away"'
p6713
aS'Stars Dead or Alive'
p6714
aS'ISM: Dust and Molecular Clouds'
p6715
aS'Undergraduate Research'
p6716
aS'Committee on the Status of Minorities in Astronomy'
p6717
aS'<FONT COLOR="#CC33CC">HAD III</FONT>: Biography of 19th and 20th Century Astronomers'
p6718
aS'Solar Systems: Ours and Theirs'
p6719
aS'Warner Prize Lecture'
p6720
aS'Normal and Dwarf Novae'
p6721
aS'ACS, FAME, FUSE, SIM, and Swift'
p6722
aS'Galaxies and Clusters'
p6723
aS'Forming and Probing Large Scale Structure'
p6724
aS'Galactic Open Clusters and Their Contents'
p6725
aS'The Solar System'
p6726
aS'Planetary Systems: Observations and Models'
p6727
aS'The Interstellar Medium I'
p6728
aS'Blazars and AGNs'
p6729
aS'Eta Carinae, LBVs, and Circumstellar Disks'
p6730
aS'The Milky Way: From Center to Halo'
p6731
aS'Galaxy Evolution and Surveys: Modeling and Theory'
p6732
aS'Galaxy Evolution and Surveys: Observations and Interpretation'
p6733
aS'K-12 Astronomy Education and Public Outreach'
p6734
aS'Compact X-Ray Sources'
p6735
aS'Instrumental Calibration and Data Analysis Techniques'
p6736
aS'Supernovae Potpourri'
p6737
aS'Stellar Black Holes'
p6738
aS'Clusters of Galaxies at Many Wavelengths'
p6739
aS'Structure in and at Clusters of Galaxies'
p6740
aS'Star Formation I'
p6741
aS'Pluto-Occultation Studies'
p6742
aS'The Biology of Astrobiology for Astronomers I'
p6743
aS'Making it Work: Principled ``Model Free Deconvolution" via Multiscale Methods'
p6744
aS'Russell Prize Lecture'
p6745
aS'Stars and Galactic Structure in the Sloan Digital Sky Survey'
p6746
aS'Star Formation II'
p6747
aS'Cosmic Gas: Long Ago and Far Away'
p6748
aS'Structure of Galaxies with Central Masses'
p6749
aS'Gamma Ray Observations'
p6750
aS'The Biology of Astrobiology for Astronomers II'
p6751
aS'High Energy Astro and Neutron Stars'
p6752
aS'Physical Worlds, Biological Worlds, and Virtual Worlds'
p6753
aS'Rossi Prize Lecture'
p6754
aS'Stars: Observational Programs'
p6755
aS'Binaries and Friends'
p6756
aS'Astronomers and Their Tools'
p6757
aS'The Interstellar Medium II'
p6758
aS'NOAO Survey Programs'
p6759
aS'Intergalactic Material: Its Structure and Composition'
p6760
aS'Gravitational Lenses'
p6761
aS'Extragalactic Star Clusters'
p6762
aS'Planning for Future Missions: Radio to X-Ray'
p6763
aS'Solar Activity'
p6764
aS'Gamma Ray Observations'
p6765
aS'X-Rays'
p6766
aS'Radio Galaxies and Jets'
p6767
aS'Radio and X-Ray SNRs'
p6768
aS'Undergraduate Astronomy Instruction, Labs and Research'
p6769
aS'Planetary Nebulae and Dusty Clouds'
p6770
aS'HST Instruments'
p6771
aS'Computational Techniques and Tools'
p6772
aS'The SNAP Observatory'
p6773
aS'Star Formation II'
p6774
aS'<FONT COLOR="#FF6600">HEAD I</FONT>: Cosmic Ray Physics in the 21st Century'
p6775
aS'How NSF Works'
p6776
aS'Planetary Systems II'
p6777
aS'Probing Dark Energy with SNAP'
p6778
aS'AGNs, Black Holes, and Quasars'
p6779
aS'Supernovae, SNRs, and Our Atmosphere'
p6780
aS'Galaxy Evolution and Surveys: Miscellaneous'
p6781
aS'Cosmology and Gravitation'
p6782
aS'Pierce Prize Lecture'
p6783
aS'<FONT COLOR="#FF6600">HEAD II</FONT>: New Directions in X-Ray Astronomy'
p6784
aS'NOAO Survey Programs'
p6785
aS'Mapping the Cosmos: A Variety of Surveys'
p6786
aS'Alternative Careers for Astronomers'
p6787
aS'AGN'
p6788
aS'Old Stellar Populations'
p6789
aS'Fine Structure in Galaxies'
p6790
aS'Unraveling the Physics of Cataclysmic Variables and Accretion Disks'
p6791
aS'Super Machos and Supernovae: Astrophysics in the Time Domain'
p6792
aS'The ISM: Clouds and Regions'
p6793
aS'Massive Star Winds and Atmospheres'
p6794
aS'Quasars'
p6795
aS'Cool Star Atmospheres and Envelopes'
p6796
aS'Galaxies - Activating'
p6797
aS'Delta Scuti and Pulsating Friends'
p6798
aS'Rotation-Powered Pulsars'
p6799
aS'White Dwarfs'
p6800
aS'Cataclysmic Variables'
p6801
aS'From Microns to Meters: Radio Wavelength Miscellany'
p6802
aS'Instruments for Observing Transient Events'
p6803
aS'Supernovae and Other Distance Indicators'
p6804
aS'WIYN Open Cluster Study'
p6805
aS'Quasars'
p6806
aS'SNAP'
p6807
aS'Interstellar Medium: Hot and Cold'
p6808
aS'Galaxy Evolution and Surveys" ``Nearby"'
p6809
aS"LMXB's and Transient Sky"
p6810
aS'The Sun and Solar System Studies'
p6811
aS'Astronomical Instrumentation and Data Handling'
p6812
aS'Innovations in Graduate Education in Astronomy'
p6813
aS'Stars, Gas, and Dust in the Universe'
p6814
aS'LSST'
p6815
aS'How to Write Winning E/PO Proposals for NASA Space Science Research Awards'
p6816
aS'Star Formation Young Stars'
p6817
aS'DEEP2 Survey'
p6818
aS'X-Ray Observations of Quasars and AGNs'
p6819
aS'Pulsars: Blowing in the Wind'
p6820
aS'Cosmology: CMB and Reionization'
p6821
aS'The Orion Nebula: Structure and Population'
p6822
aS'Computation, Data Handling, Image Analysis'
p6823
aS'Instrumentation: Ground-based'
p6824
aS'Instrumentation: Space Missions'
p6825
aS'The Sun and The Shapley Program'
p6826
aS'Black Holes and Pulsars'
p6827
aS'Cataclysmic Variables'
p6828
aS'Binary Stars'
p6829
aS'Communication Science to the Public'
p6830
aS'Astronomy Education: Middle School to College'
p6831
aS'Galaxies, Cosmology and Higher Redshift Objects'
p6832
aS'Engaging the Public: from Museums to the Classroom'
p6833
aS'Stars and Supernovae'
p6834
aS'Starbursts and AGN'
p6835
aS'Follow-up to the Workshop for New Faculty'
p6836
aS'Hale Prize: The Dynamic Sun'
p6837
aS'Deep Imaging Surveys'
p6838
aS'Blazars and Radio Sources'
p6839
aS'Galaxy Clusters and Intergalactic Medium'
p6840
aS'Cool Astronomy for Everyone'
p6841
aS'The Training and Work of Ph.D. Physical Scientists'
p6842
aS'Grand Unification of Active Galaxies'
p6843
aS'Observational Probes of Dark Energy'
p6844
aS'When Do Planets Form?'
p6845
aS'Surveys and Catalogs'
p6846
aS'Galactic Center, Galactic Halo'
p6847
aS'Open and Globular Clusters'
p6848
aS'Young Stars and Star Formation'
p6849
aS'Molecular Clouds and the ISM'
p6850
aS'Novae, Supernovae and Remnants'
p6851
aS'Observational Probes of Dark Energy'
p6852
aS'Stellar Atmospheres and Circumstellar Material'
p6853
aS'Jupiter and Extrasolar Planets'
p6854
aS'When Do Planets Form?'
p6855
aS'Blazar Continuum Variability Across the Electromagnetic Spectrum'
p6856
aS'The Dynamic Radio Sky'
p6857
aS'Laser Interferometer Space Antenna'
p6858
aS'Robotic Astronomical Observatories'
p6859
aS'Variable Stars'
p6860
aS'Galaxies'
p6861
aS'Galaxy Clusters in the Sloan Digital Sky Survey'
p6862
aS'Quasars and Active Galaxies'
p6863
aS'Blazar Continuum Variability Across the Electromagnetic Spectrum'
p6864
aS'Future Optical/UV Astronomy from Space: Science and Mission Concepts'
p6865
aS'Gamma-Ray Bursts'
p6866
aS'Gamma-Ray Bursts in the Swift Era'
p6867
aS'Robotic Astronomical Observatories'
p6868
aS'Gamma-Ray Bursts in the Swift Era'
p6869
aS'Future Optical/UV Astronomy from Space: Science and Mission Concepts'
p6870
aS'Exploring Disks at Planet Formation Distances'
p6871
aS'Galaxy Clusters in the Sloan Digital Sky Survey'
p6872
aS'Communicating Science to the Public'
p6873
aS'Star Formation, Interstellar Medium'
p6874
aS'Cosmology Runs Through It'
p6875
aS'Solar Systems to Galaxies'
p6876
aS'Warner Prize: Polarization in the CMB'
p6877
aS'<FONT COLOR="#CC33CC">HAD I:</FONT> Transit of Venus'
p6878
aS'Astronomical Research'
p6879
aS'Space Missions: Planet Finding, Astrobiology and Others'
p6880
aS'Computation, Data Handling and Image Analysis'
p6881
aS'T Tauri Stars'
p6882
aS'Brown Dwarf Stars'
p6883
aS'Star Formation'
p6884
aS'Delta Scuti and Mira Variables'
p6885
aS'Variable Star Databases'
p6886
aS'Young Star Clusters'
p6887
aS'Planetary Nebulae'
p6888
aS'Eclipsing Binary Stars'
p6889
aS'Disks Around Young Stars'
p6890
aS'Open Clusters'
p6891
aS'Comets, Kuiper Belt and Trans-Neptunian Objects'
p6892
aS'Asteroids, Planets and Planetary Satellites'
p6893
aS'Extra Solar Planets'
p6894
aS'Solar Physics'
p6895
aS'Focus on Undergraduate Astronomy'
p6896
aS'Accessing Data Bases'
p6897
aS'Astronomy Education Research'
p6898
aS'First Results from the Space Infrared Telescope Facility (SIRTF)'
p6899
aS'Quasars, Blazars and Jets'
p6900
aS'Observatories and Observing Conditions: Optical to X-rays'
p6901
aS'Young Stars and Clusters'
p6902
aS'Galaxy Evolution'
p6903
aS'Committee on the Status of Minorities in Astronomy'
p6904
aS'<FONT COLOR="#CC33CC">HAD II</FONT>'
p6905
aS'Doggett Prize Lecture'
p6906
aS'Galaxy Clusters and Large Scale Structure I'
p6907
aS'X-ray Observations'
p6908
aS'Spiral Galaxies'
p6909
aS'Young Stars'
p6910
aS'Cool Astronomy for Everyone'
p6911
aS'<FONT COLOR="#CC33CC">HAD III</FONT>'
p6912
aS'Our Solar System Neighbors'
p6913
aS'RECONS'
p6914
aS'Observation and Instrumentation : Optical'
p6915
aS'Supernova Remnants'
p6916
aS'Observations and Instrumentation: Non-Optical'
p6917
aS'Warm-Hot IM'
p6918
aS'Nearby Stars: Binaries, Theory and the Future'
p6919
aS'Nearby Stars: Observations'
p6920
aS'Cataclysmic Variables, Novae'
p6921
aS'Supernovae'
p6922
aS'Instrumentation for HST and Sirtf'
p6923
aS'Galaxy Clusters and Large-Scale Structure'
p6924
aS'Fully Employed Stars'
p6925
aS'Stars Looking Forward to Retirement'
p6926
aS'Galaxy Surveys: Sub-mm to Radio'
p6927
aS'Galaxy Groups and Nearby Clusters'
p6928
aS'Globular Clusters'
p6929
aS'Pulsars and Other Neutron Stars'
p6930
aS'White Dwarf Stars'
p6931
aS'AGN and Starburst Galaxies'
p6932
aS'Seyfert, FRI and FRII Galaxies'
p6933
aS'Source Surveys'
p6934
aS'Eta Carinae'
p6935
aS"Get'em Hooked: Pre-college Astronomy"
p6936
aS'Nearby Star I'
p6937
aS'Galaxy Clusters and Large Scale Structure II'
p6938
aS'HETE and Other Clues to GRBs'
p6939
aS'AGN'
p6940
aS'The Warm-Hot Intergalactic Medium: The Main Baryon Reservoir in the Local Universe'
p6941
aS'Galaxies'
p6942
aS'Cosmic Convergence:  Particles, Stars, and the Universe'
p6943
aS'Nearby Star II'
p6944
aS'Galaxy Clusters and Large Scale Structure III'
p6945
aS'The High Z Universe'
p6946
aS'Interstellar Medium'
p6947
aS'Molecular Cloud Cores'
p6948
aS'Science Policy from the Inside'
p6949
aS'White Dwarfs and Neutron Stars'
p6950
aS'Young Substellar Objects'
p6951
aS'Rossi Prize Lectures: Magnetars'
p6952
aS'HII Regions'
p6953
aS'Jets and Outflows and X-Rays from Young Stars'
p6954
aS'Quasars and QSOs'
p6955
aS'Blazars'
p6956
aS'Gamma Ray Bursts'
p6957
aS'Black Holes'
p6958
aS'Mass and Energy Matters'
p6959
aS'Stars Variable in Light'
p6960
aS'Binary Stars'
p6961
aS'Stellar Structure, Evolution and Abundances'
p6962
aS"Education: NASA's Great Observatories"
p6963
aS'<FONT COLOR="#FF6600">HEAD:</FONT> GRBs and Intermediate Black Holes'
p6964
aS'Bl-Lac-Ish Objects'
p6965
aS'Galaxy Clusters at High Redshift'
p6966
aS'Galaxy Evolution with HST, CXO and SIRTF'
p6967
aS'Galaxy Surveys'
p6968
aS'Astrophysical Jets and Radio Galaxies'
p6969
aS'Stars, Their Facts and Legends'
p6970
aS'Embedded Protostars'
p6971
aS'<FONT COLOR="#FF6600">HEAD I:</FONT> Gamma-Ray Bursts'
p6972
aS'GALEX I: The Mission and Early Type Galaxies'
p6973
aS'Gas and Dust in Galaxies and the IGM'
p6974
aS'Star and Planet Formation'
p6975
aS'Stuff in the Milky Way Galaxy'
p6976
aS'Research at Predominantly Undergraduate Institutions'
p6977
aS'Heineman Prize Lecture: Internal Motions and Turbulence'
p6978
aS'<FONT COLOR="#FF6600">HEAD II:</FONT> Intermediate Mass Black Holes'
p6979
aS'GALEX II: Higher Energy Observations'
p6980
aS'Black Holes'
p6981
aS'Dwarf, Irregular, LUM IR and Starburst Galaxies'
p6982
aS'Galaxy Evolution with Deep Ground-based Surveys'
p6983
aS"Education and Public Outreach from NASA's Great Observatories"
p6984
aS'Early Stars and Clusters'
p6985
aS'Stellar Abundances'
p6986
aS'Interstellar Medium I'
p6987
aS'Interstellar Medium II'
p6988
aS'The Milky Way and Its Environs'
p6989
aS'Molecules and Atoms at High Z and Low Z'
p6990
aS'Dust in Galaxies'
p6991
aS'Dwarf, Irregular and Starburst Galaxies'
p6992
aS'Elliptical and Spiral Galaxies'
p6993
aS'Fundamental Physics'
p6994
aS'Reaching Out: EPO'
p6995
aS'Galaxy Evolution at High Redshift'
p6996
aS'Gravitational Lensing'
p6997
aS'JWST'
p6998
aS'Antenna Galaxies'
p6999
aS'Extra Solar Planets I'
p7000
aS'JWST Science'
p7001
aS'(Super)Novae (Remnants) and Black Holes'
p7002
aS'The Antennae Galaxies: The Nearest Example of High Z Galaxy Interaction'
p7003
aS'Variations in Stars'
p7004
aS'Grant Writing: Best Practices for Successful Proposals'
p7005
aS'Pierce Prize Lecture'
p7006
aS'Extra Solar Planets II'
p7007
aS'Galaxy Evolution with HST Surveys'
p7008
aS'Gamma Ray Bursts: Processes and Phenomena'
p7009
aS'Pulsars'
p7010
aS'Solar System and The Sun'
p7011
aS'Making Astronomy Real'
p7012
aS'Formation and Migration of Extrasolar Planets'
p7013
aS'When the Sun Went Wild'
p7014
aS'Stellar-Solar Connection'
p7015
aS'Plasma Astrophysics of Coronae'
p7016
aS'Eclipsing Binaries and Friends'
p7017
aS"Stars: Winkin' and Blinkin'"
p7018
aS'A Walk Through the HR Diagram'
p7019
aS'UV/Optical Universe at Ultra-High Angular Resolution'
p7020
aS'Clusters of Galaxies'
p7021
aS'Instrumentation, Ground-based'
p7022
aS'Instrumentation, Space Missions'
p7023
aS'Undergraduate Astronomy Curriculum'
p7024
aS'RFI Mitigation and Light Pollution Issues'
p7025
aS'Multi-wavelength Astronomy and SDSS'
p7026
aS'Diffuse Media Galactic and Intergalactic'
p7027
aS'Interactive Education and Peer Instruction in Introductory Courses'
p7028
aS'Galaxies Including Our Own'
p7029
aS'Coronal Mass Ejections'
p7030
aS'Astronomy Education'
p7031
aS'Magnetic Fields'
p7032
aS'Moon, Mercury, Vesta and Late Stellar Evolution'
p7033
aS'Pierce Prize Lecture: X-raying Active Galaxies'
p7034
aS'Radio and X-ray Studies of AGN'
p7035
aS'Protoplanetary Disks and the Brown Dwarf Desert'
p7036
aS'The UV/Optical Universe at Ulta-High Angular Resolution'
p7037
aS'Followup to Workshop for New Faculty in Physics and Astronomy'
p7038
aS'Magnetic Reconnection Flares and CMEs'
p7039
aS'The Reference System Resolutions of the IAU'
p7040
aS'The Solar Corona and Beyond'
p7041
aS'Radio Frequency Interference'
p7042
aS'Hale Prize Lecture: The High Energy Sun'
p7043
aS"The Sun's Control of Earth's Astronomical Neighborhood"
p7044
aS'Early Science Results from the Spitzer Space Telescope'
p7045
aS'Detecting the First Stars and AGN'
p7046
aS'Professional-Amateur Collaboration for Enhanced Research'
p7047
aS'Stellar-Solar Connection: What the Stars Teach Us about Our Sun'
p7048
aS'Solar Magnetic Fields and the Photosphere'
p7049
aS'Coronal Mass Ejections'
p7050
aS'Solar Magnetic Fields and Activity'
p7051
aS'Galaxies'
p7052
aS'Spitzer Space Telescope'
p7053
aS'Cosmology and Lensing'
p7054
aS'Galaxy Surveys and Galaxy Clusters'
p7055
aS'Active Galaxies'
p7056
aS'The Galaxy and The Magellanic Clouds'
p7057
aS'Plasma Astrophysics of Coronae: Solar, Stellar and Accretion Disk'
p7058
aS'When the Sun Went Wild'
p7059
aS"Galaxy Evolution and Galaxy Clustering in the NDWFS' Bootes Field"
p7060
aS'X-ray Binary and ULX Populations in Nearby Galaxies'
p7061
aS'AGN Mass Ejection and X-ray/UV Connection'
p7062
aS'Improving Our Understanding of Solar and Stellar Coronae'
p7063
aS'Virtual Observations in Solar Physics'
p7064
aS'Solar Interior'
p7065
aS'Solar Flares'
p7066
aS'Prominences'
p7067
aS'Solar Active Regions and Coronal Heating'
p7068
aS'Historical Astronomy'
p7069
aS'Astronomy Education Research'
p7070
aS'Galactic Center'
p7071
aS'Quasars'
p7072
aS'Structures in the Interstellar Medium'
p7073
aS'Protoplanets, Star Formation and Debris Disks'
p7074
aS'Exploding Stars'
p7075
aS'The Hazardous Solar System and Other Objects'
p7076
aS'Galaxy Structure and its Evolution'
p7077
aS'Mars Down to Earth'
p7078
aS'Solar Input to the Heliosphere'
p7079
aS'Hidden Losses'
p7080
aS'New Solar Instrumentation'
p7081
aS'Virtual Solar Observatory'
p7082
aS'Large-Scale Features of the Solar Corona'
p7083
aS'Solar Input to the Heliosphere'
p7084
aS'Solar and Stellar Coronae'
p7085
aS'Stellar Leftovers'
p7086
aS'Surveys, Catalogs and Databases'
p7087
aS'Data Handling, Computation'
p7088
aS'Astronomy for K-12'
p7089
aS'Informal Astronomy Programs'
p7090
aS'Intergalactic Gas'
p7091
aS'Nearby Galaxies'
p7092
aS'Herschel FIR/Sub-mm Astronomy Mission'
p7093
aS'Star Formation and Early Results from Spitzer'
p7094
aS'The Astronomy Workforce'
p7095
aS'New Ways of Teaching College Astronomy -- Practical Advice and Results'
p7096
aS"What's New with Old Variable Stars?"
p7097
aS'Harvey Prize'
p7098
aS'Flares'
p7099
aS'Solar Photosphere and Below'
p7100
aS'Obtrusive Nighttime Lighting'
p7101
aS'Cosmological Parameters and Beyond'
p7102
aS'Young Galaxies and Evolution in the Early Universe'
p7103
aS'Diagnosing AGN'
p7104
aS'The Herschel Far-Infrared Submillimeter Astronomy Mission'
p7105
aS'Cool Astronomy for Everyone'
p7106
aS'Coronal Heating Theory and Observations'
p7107
aS'Teaching Astronomy to Impact World Views'
p7108
aS'Instrumentation, Ground-based and Space-based Gamma Ray Bursts'
p7109
aS'HAD I: Centennial Celebration of the Founding of Mount Wilson Observatory'
p7110
aS'HAD Poster Session I'
p7111
aS'New Waves: Astronomical Research with Millimeter to Infrared Interferometers'
p7112
aS'HAD Poster Session II'
p7113
aS'Visible/UV/IR Space Missions and Technology'
p7114
aS'X-ray and Gamma Ray Space Missions and Technology'
p7115
aS'Laboratory Astrophysics'
p7116
aS'Informal Astronomy'
p7117
aS'NURO Asteroids and Stars'
p7118
aS'Solar Studies'
p7119
aS'Brown Dwarfs and Exoplanets'
p7120
aS'Stellar Atmospheres'
p7121
aS'Stellar Evolution'
p7122
aS'Variable Stars and Stellar Oscillations'
p7123
aS'Young Stellar Associations'
p7124
aS'Ae Be and T Tauri Stars'
p7125
aS'Ae Be and Debris Disks: Searches Lead to High Angular Resolution Studies'
p7126
aS'Eclipsing Binaries and Contact Binaries'
p7127
aS'Cataclysmic Variable Stars'
p7128
aS'Variability of Eta Carinae'
p7129
aS'Stars Throughout the Milky Way'
p7130
aS'Open Clusters Young and Old'
p7131
aS'Globular Clusters in and around the Milky Way'
p7132
aS'Galactic Center'
p7133
aS'Galaxy Evolution Explorer Mission'
p7134
aS'Starbursts in Galaxies'
p7135
aS'Active Galactic Nuclei'
p7136
aS'Lensing: Micro, MACHO, Strong, Weak and Wide'
p7137
aS'Planetary Systems and Origins of Planetary Bodies'
p7138
aS'Jets and Active Nuclei in Galaxies'
p7139
aS'Evolution of Ellipticals and Dark Matter Halos'
p7140
aS'The Galactic Center'
p7141
aS'Instrumentation: Ground-Based and Space-Based'
p7142
aS'Stellar Structure and Evolution'
p7143
aS'HAD II: Observatories, Toys and Genesis'
p7144
aS'Uses of Modern Technology in Introductory Astronomy Education'
p7145
aS'Planetary Rings: Structure, Evolution and Origins'
p7146
aS'Cosmic Evolution of Mass and Metallicity'
p7147
aS'Finding Extrasolar Planets'
p7148
aS'SNe Observations and GRB Milky Way Effects'
p7149
aS'ISM I'
p7150
aS'GALEX: A Year Exploring the UV Universe'
p7151
aS'The Sun, Heliosphere and Planets'
p7152
aS'HAD III: Catalogs, Surveys and Ancient Observations'
p7153
aS'Cool Astronomy for Everyone'
p7154
aS'Origins of Stellar Populations in Spheroids'
p7155
aS'Intelligent Design and the Creationism/Evolution Controversy'
p7156
aS'Visible-Light Telescopes, Instruments, and Technology'
p7157
aS'Radio and IR Observatories and Instruments'
p7158
aS'EXIST'
p7159
aS'Improving Undergraduate Astronomy through Faculty Professional Development and Education Research'
p7160
aS'Stellar Atmospheres, Abundances and Opacities'
p7161
aS'Hot Stars, Atmospheres and Winds'
p7162
aS'Pulsating Stars:  RR Lyraes, Miras, Cepheids, etc.'
p7163
aS'M dwarfs, Nearby Stars and High-proper-motion Stars'
p7164
aS'Planets and Solar System Objects'
p7165
aS'Atomic Abundances in Interstellar Gas'
p7166
aS'Dust (and Ice) Gets in Your Eyes'
p7167
aS'ISM: Dust and Molecules'
p7168
aS'Secular Evolution Potpourri: Star Formation to Galactic Structures'
p7169
aS'First Results from HST Cosmic Evolution Survey'
p7170
aS'Great Observatories Origins Deep Survey'
p7171
aS'Spitzer Views on Galaxy Evolution'
p7172
aS'Extragalactic Star Clusters'
p7173
aS'SNAP Science'
p7174
aS'The SNAP Focal Plane: Spectrograph and Imager'
p7175
aS'Calibration of Post Space Missions: MSX and SNAP'
p7176
aS'Observations of GRBs and Other Transients'
p7177
aS'Cosmology: Population III, Distant SNe, and Dark Energy'
p7178
aS'Supernovae and Supernovae Remnants'
p7179
aS'Supernovae'
p7180
aS'First Results from HST Cosmic Evolution Survey'
p7181
aS'Distances, the CMB and the Sunyaev-Zeldovich Effect'
p7182
aS'ISM II'
p7183
aS'Galaxy Clusters and Groups I'
p7184
aS'X-Ray Binaries, and Pulsars'
p7185
aS'Properties of Stars'
p7186
aS'Galactic Astronomy with the Arecibo L-band Feed Array'
p7187
aS'Providing Access to U.S. Astronomers for the Next Generation of Large Ground Based OIR Telescopes'
p7188
aS'Russell Prize Lecture: Scanning Cosmological Horizons'
p7189
aS'Mapping the Universe'
p7190
aS'Dark Matter, Weak and Strong Lensing'
p7191
aS'Neutron Stars and Pulsars'
p7192
aS'ISM III, SNe and Stirring the Soup'
p7193
aS'Star Clusters and Associations'
p7194
aS'Comparing Career Options: Academic, Science Centers, and Industry'
p7195
aS'Use of Modern Technology in Introductory Astronomy Education'
p7196
aS'EXIST'
p7197
aS'Galaxy and Structure Formation'
p7198
aS'Rossi Prize Lecture: Perspectives of the Chandra X-ray Observatory'
p7199
aS'Surveys and Catalogs'
p7200
aS'Ellipticals and Early Types'
p7201
aS'Dwarf Galaxies'
p7202
aS'From Protogalaxies to Large Surveys: Tracing the Galaxy Evolution'
p7203
aS'Technology in Astronomy Education'
p7204
aS'Astronomy Education: K-12'
p7205
aS'Communicating Astronomy'
p7206
aS'High Mass Star Formation and Deeply Embedded Star Formation'
p7207
aS'The Extragalactic ISM'
p7208
aS'Origins Probes'
p7209
aS'SNR in the LMC, SMC and Andromeda Galaxy'
p7210
aS'Neutron Stars'
p7211
aS'White Dwarfs'
p7212
aS'Black Holes'
p7213
aS'Triggered Star Formation and the Orion Protostellar Population'
p7214
aS'SNRs and Loops'
p7215
aS'Binary Stars Including Theory and Activity'
p7216
aS'LSST'
p7217
aS'Surveys for Young Stars Down to the Brown Dwarf Limit'
p7218
aS'Active Galaxies'
p7219
aS'Radio Pulsars'
p7220
aS'Astronomy Teaching Through Humanities'
p7221
aS'Research with the Virtual Observatory'
p7222
aS'Studies of Variable and Moving Objects with the SDSS'
p7223
aS'SWIFT'
p7224
aS'HEAD I: SWIFT'
p7225
aS'Star Formation, Embedded Young Stars and Their Disks'
p7226
aS'Activity in the Nuclei of Galaxies'
p7227
aS'Galaxy Clusters and Groups II'
p7228
aS'Studies of Variable and Moving Objects with the SDSS'
p7229
aS'G-waves: Gamma Rays and Gravity'
p7230
aS'HI and Galactic Disks'
p7231
aS'Matter on the Largest Scales'
p7232
aS'Astronomy Teaching through Humanities: Poetry, Fiction, the Visual Arts and More'
p7233
aS'Science Results from the Mars Exploration Rover Mission'
p7234
aS'HEAD II: High Energy Astrophysics and the NASA Roadmap'
p7235
aS'Circumstellar Disks and the Origin of the Solar System'
p7236
aS'The Buildup of Galaxy Disks - Star Formation History'
p7237
aS'Absorptions and The Intergalactic Medium'
p7238
aS'Astronomical Research with the Virtual Observatory'
p7239
aS'The Deep Dark Universe'
p7240
aS'Astronomy in the K-12 Classroom'
p7241
aS'Cosmology with Large-Area Surveys'
p7242
aS'A Suitcase Full of Astrophysics: The First Year of Ultraprecise Photometry from the MOST Space Mission'
p7243
aS'Finding and Measuring Exoplanets'
p7244
aS'Classy I and II Protostars'
p7245
aS'GLIMPSE: First Results'
p7246
aS'Planetary and Reflection Nebulae and WR Bubbles'
p7247
aS'The Ionized ISM: Observations and Theory'
p7248
aS'Cold Gas and Molecular Clouds'
p7249
aS'Our Friendly Neighbors: M31 and M33'
p7250
aS'Galactic Structure, Halo and High Velocity'
p7251
aS'Quasars'
p7252
aS'Jets from Radio Galaxies'
p7253
aS'Intergalactic Media'
p7254
aS'Intracluster Material within Galaxy Clusters'
p7255
aS'Groups and Clusters of Galaxies'
p7256
aS'Large Scale Structure'
p7257
aS'Gravitational Wave Astronomy'
p7258
aS'Science with Small Telescope from SMARTS'
p7259
aS'Instruments for Small College Observatories'
p7260
aS'Astronomy Research in Undergraduate Classes'
p7261
aS'Computation, Data Handling, Image Analysis'
p7262
aS'The Planck Mission'
p7263
aS'X-ray Sources'
p7264
aS'T Tauri Stars and Their Disks'
p7265
aS'Cluster of Galaxies and Dark Matter'
p7266
aS'Gravitational Wave Astronomy'
p7267
aS'Novae, CVs, Blue Stragglers, and GRB Cosmography'
p7268
aS'GRBs: Observatories and Observations'
p7269
aS'Cluster Evolution and Large Scale Structure'
p7270
aS'Heineman Prize Lecture: Interstellar Dust'
p7271
aS'New Results from the Great Observatories Origins Deep Survey'
p7272
aS'Neutrinos, SNe, GRBs, Acceleration, Nucleosynthesis'
p7273
aS'Science with Small Telescopes from SMARTS'
p7274
aS'Massive Embedded Stars Forming'
p7275
aS'Quasars and Blazars'
p7276
aS'Instrumentation and Telescopes for Small College Observatories'
p7277
aS'Dwarf Galaxies Near and Far and Some Starbursts'
p7278
aS'White Dwarfs and Hot Subdwarfs'
p7279
aS'Imaging Dark Matter with Gravitational Lensing'
p7280
aS'Astronomy 101: something old, something new, something borrowed, something true'
p7281
aS'K-12 Classroom and Students'
p7282
aS'Professional Development for K-12 Teachers'
p7283
aS'Public Observatories and Informal Astronomy'
p7284
aS'Formation and Fate of Stardust'
p7285
aS'Star Formation'
p7286
aS'Circumstellar Shells and Disks'
p7287
aS'Brown Dwarfs and Extrasolar Planets'
p7288
aS'Galaxies, Clusters and Large Scale Structure'
p7289
aS'AGNs, QSOs, Active Galaxies'
p7290
aS'Dwarf Irregular and Starburst Galaxies'
p7291
aS'Spiral Galaxies, Elliptical Galaxies'
p7292
aS'Astrophysics with Optical Interferometry'
p7293
aS'Astronomical Instruments'
p7294
aS'Galaxy Surveys'
p7295
aS'Fundamental Physics with Millisecond Pulsars'
p7296
aS'Professional Ethics for Astronomers'
p7297
aS'Follow up to the Workshop for New Faculty'
p7298
aS'Coronal Mass Ejections: the Most Powerful Drivers of the Sun-Earth System'
p7299
aS'Galaxies and Cosmology'
p7300
aS'Cool Astronomy for Everyone'
p7301
aS'Stars and Observing Them'
p7302
aS'History of Astronomy, Surveys, Plate Collections'
p7303
aS'Trails, Tails, Clouds and Shells: Dust from the Spitzer Perspective'
p7304
aS'Astronomy Education: The Good, the Bad, and the Ugly'
p7305
aS'Asymmetries in Type Ia Supernovae'
p7306
aS'Formation and Fate of Stardust'
p7307
aS'X-Ray Flashes'
p7308
aS'Relativistic Jets'
p7309
aS'Highlights in Laboratory Astrophysics'
p7310
aS'Highlights in Laboratory Astrophysics'
p7311
aS'Relativistic Jets'
p7312
aS'Sun and Solar System'
p7313
aS'Stars'
p7314
aS'Star Clusters'
p7315
aS'The Milky Way'
p7316
aS'Interstellar Medium, H II Regions and Molecular Clouds'
p7317
aS'Planetary and Protoplanetary Nebulae'
p7318
aS'Binary Stars'
p7319
aS'Variable Stars'
p7320
aS'Dwarf Novae and Other Cataclysmic Variables'
p7321
aS'Pulsars, Neutron Stars and White Dwarfs'
p7322
aS'Crab Nebula and Other Supernova Remnants'
p7323
aS'Supernovae Observations and Theory'
p7324
aS'Black Holes'
p7325
aS'Gamma Ray Bursts'
p7326
aS'Surveys: SDSS, 2MASS, ChaMPlane'
p7327
aS'Dark Matter and Dark Energy'
p7328
aS'Stellar Abundance Observations and Heavy Element Formation'
p7329
aS'Supernovae and Supernovae Remnants'
p7330
aS'Demystifying EPO and the Broader Impacts Criteria'
p7331
aS'Institutional Solutions to the ``Two-Body Problem"'
p7332
aS'Bubble, Bubble, Boil, and Bubbles'
p7333
aS'Warner Prize Lecture'
p7334
aS'Preservation of Historical Archives'
p7335
aS'History of Space Science'
p7336
aS'Russell Lectureship'
p7337
aS'Solar System'
p7338
aS'White Dwarfs: Properties and Companions'
p7339
aS'Black Holes: Winds, Blobs, Screams and All'
p7340
aS'Astrobiology, SETI, Laboratory Astrophysics'
p7341
aS'Planetary Nebulae'
p7342
aS'Circumstellar Disks I'
p7343
aS'Circumstellar Disks II'
p7344
aS'Binary Models and Parameters'
p7345
aS'Con-X Instruments and Optics'
p7346
aS'Interacting Binaries'
p7347
aS'Highlights and Discoveries from INTEGRAL'
p7348
aS'SNLS'
p7349
aS'Example Constellation-X Science'
p7350
aS'TeraScale Supernova Initiative'
p7351
aS'X-ray and UV Observations of AGN, Including AGN Outflows'
p7352
aS'GRB and SGR'
p7353
aS'X-ray Studies of AGN and the High Energy Cosmic Background'
p7354
aS'Starbursts, LIRGS and ULIRGS'
p7355
aS'Evolution of Galaxies, Galaxies Surveys I'
p7356
aS'Future Space Missions'
p7357
aS'Suzaku and GLAST Instrumentation'
p7358
aS'VO and Source Surveys'
p7359
aS'LSST'
p7360
aS'Probing and Understanding Effective Learning and Teaching'
p7361
aS'Astronomical Observatories'
p7362
aS'Observation Processing, Calibration and Control'
p7363
aS'Astrophysical Computations and Codes'
p7364
aS'History of Astronomy'
p7365
aS'Extreme Physics from Compact Objects'
p7366
aS'Epoch of Reionization: Observing Cosmic HI at 21cm'
p7367
aS'Information Services and Databases'
p7368
aS'The Herschel Far-Infrared/Submillimeter Astronomy Mission'
p7369
aS'Extreme Physics from Compact Objects'
p7370
aS'AGN Jets and Radio Galaxies'
p7371
aS'The X-ray and Infrared Backgrounds, AGN Evolution'
p7372
aS'Circumstellar Disks'
p7373
aS'Galactic Structure with WIMPS, STARS and Gas'
p7374
aS'Sunyaev-Zeldovich Observations of Clusters'
p7375
aS'Element and Stellar Evolution'
p7376
aS'Galaxy Evolution'
p7377
aS'Astronomy Education with Radio Waves and Music'
p7378
aS'Doggett Lecture'
p7379
aS'History Potpourri'
p7380
aS'Gravitational-waves with Interferometers'
p7381
aS'Epoch of Reionization: Observing Cosmic HI at 21cm'
p7382
aS'NASA Strategic Planning and Space Astronomy'
p7383
aS'Cool Astronomy'
p7384
aS'Highlights and Discoveries from INTEGRAL'
p7385
aS'Galaxy Surveys'
p7386
aS'Diffuse ISM and Dust'
p7387
aS'Supernovae, Novae, and Cataclysmic Variables'
p7388
aS'Shocks and Flows within Galaxy Clusters'
p7389
aS'AGN Gas Kinematics'
p7390
aS'Astronomical Data from the NVO: Opportunities for Enhancement of Science Education'
p7391
aS'Stellar Personalities'
p7392
aS'Studying Stellar Evolution with Seismology'
p7393
aS'Massive Stars and Feedback'
p7394
aS'High Energy Cosmic Rays'
p7395
aS'The COSMOS Survey'
p7396
aS'From Here to Eternity: The Spitzer Legacy Programs'
p7397
aS'ISM outside the Milky Way'
p7398
aS'Astronomy in the K-12 Classrooms'
p7399
aS'Undergraduate Astronomy'
p7400
aS'Reaching Out with Observatories, Planeteria and Activities'
p7401
aS'Extra-Solar Planets II: Current Searches, Properties and Analysis'
p7402
aS'Stellar Evolution'
p7403
aS'Cataclysmic Variables and Novae'
p7404
aS'(WIYN) Open Clusters and Associations'
p7405
aS'Neutron Stars and X-ray Binaries'
p7406
aS'SNAP'
p7407
aS'Planets in Binary Star Systems, Young Stars and Jets'
p7408
aS'Early Results from Swift: The Gamma Ray Burst Bonanza'
p7409
aS'Instruments for Small College Observatories'
p7410
aS'From Hot Jupiters to Hot Earths'
p7411
aS'Seeing the Universe in a New (Sodium) Light: Early Science Results from Laser Guide Star Adaptive Optics'
p7412
aS'AGN Jets'
p7413
aS'Evolution of Galaxies, Galaxies Surveys II'
p7414
aS'ISM: From Dark to Blinded'
p7415
aS'Ground Based Optical Interferometry'
p7416
aS'The COSMOS Survey'
p7417
aS'Planets in Binary Star Systems'
p7418
aS'Science with the Submillimeter Array'
p7419
aS'Ground Based Optical Interferometry'
p7420
aS'Galaxy Structure and Evolution'
p7421
aS'Advanced Radio, Millimeter and Sub-mm Instruments'
p7422
aS'Dwarf Galaxies: Stellar Distributions and Star Formation'
p7423
aS'Black Holes I'
p7424
aS'Star Clusters Large and Small'
p7425
aS'Astronomy Education: Collaborations and Research'
p7426
aS'Planetary Nebulae and Supernova Remnants'
p7427
aS'The Vision for Space Exploration'
p7428
aS'From Here to Eternity: The Spitzer Legacy Programs'
p7429
aS'Early Results from Swift: The Gamma Ray Burst Bonanza'
p7430
aS'From Hot Jupiters to Hot Earths'
p7431
aS'Seeing the Universe in a New (Sodium) Light: Early Science Results from Laser Guide Star Adaptive Optics'
p7432
aS'Instrumentation and Telescopes for Small College Observatories, Part II'
p7433
aS'Cosmology, Early Universe, Cosmic Distance Scale I'
p7434
aS'Galaxy Clustering and Statistical Properties'
p7435
aS'Black Holes II'
p7436
aS'Galactic Center Activity'
p7437
aS'Binary and Variable Stars'
p7438
aS'M31, Galaxy Kinematics and the Distance Scale'
p7439
aS'Measuring Cosmological Parameters'
p7440
aS'Titan: A Fiercely Frozen Echo of the Early Earth'
p7441
aS"NSF's Role in the Future of Astronomy"
p7442
aS'Professional Development for Teachers'
p7443
aS'Space-based Extra-Solar Planets: MOST, SPITZER, KEPLER, MPF'
p7444
aS'Solar Activity'
p7445
aS'Going Shallow, Going Deep: Clusters'
p7446
aS'Dwarf Galaxies'
p7447
aS'Massive Binaries'
p7448
aS'JWST'
p7449
aS'The Black Hole-Spheroid Relation and Mergers'
p7450
aS'SIM'
p7451
aS'TPF Instrumentation'
p7452
aS'The Dirty Side of the ISM - Theory and Dust'
p7453
aS'Intergalactic Medium and Absorption Line Systems'
p7454
aS'Pan-STARRS'
p7455
aS'Variable Stars'
p7456
aS'RAVE'
p7457
aS'Cool Stars'
p7458
aS'HST WFC3'
p7459
aS'Dark Matter, Dark Energy and Neutrinos'
p7460
aS'Polarization and Magnetic Fields in AGN'
p7461
aS'(Extra) Galactic Globular Clusters'
p7462
aS'SOFIA'
p7463
aS'The HST Survey of the Orion Nebula Cluster'
p7464
aS'Galactic Astronomy in the SDSS'
p7465
aS'Views of the Magellanic Clouds Across Wavelengths'
p7466
aS'The Milky Way'
p7467
aS'Irregular Galaxies'
p7468
aS'A New Look at Andromeda'
p7469
aS'Long Wavelength Array'
p7470
aS'Square Kilometer Array'
p7471
aS'Galaxy Interactions and Star Formation'
p7472
aS'Entropy, Convection and Cluster Properties'
p7473
aS'Spitzer Studies of AGN'
p7474
aS'Blazars and AGN Variability'
p7475
aS'Gravitational Lensing'
p7476
aS'Gravity Waves'
p7477
aS'Dark Energy'
p7478
aS'Views of the Magellanic Clouds Across Wavelengths'
p7479
aS'The HST Survey of the Orion Nebula Cluster'
p7480
aS'Galactic Astronomy in the Sloan Digital Sky Survey'
p7481
aS'Local Benchmarks of Galaxy Evolution'
p7482
aS'AGN: Host Galaxies and Clustering'
p7483
aS'Source Surveys, Catalogs, Databases and Swift Observations'
p7484
aS'GRB: Theory, X-rays, and Catalogs'
p7485
aS'Cosmology, Early Universe, Cosmic Distance Scale II'
p7486
aS'Space Missions: Exoplanets, Swift/UVOT and Suzaku'
p7487
aS'Planetesimals, Protostellar Disks and Cosmic Rays'
p7488
aS'Using the Tools of Science to Teach Science'
p7489
aS"Education and Public Outreach for NASA's Universe"
p7490
aS'The Universe at High Redshift'
p7491
aS'GRB: Short Bursts and Panchromatic Observations'
p7492
aS'Stratospheric Observatory for Infrared Astronomy (SOFIA)'
p7493
aS'Astronomy Visualization: The State of the Art'
p7494
aS'AGN: The Innermost Kiloparsecs, the NLR and LINERs'
p7495
aS'X-ray and Gamma ray Observations of Clusters of Galaxies'
p7496
aS'Star Formation Grab Bag I'
p7497
aS'Extra-galactic ISM - Near to Far'
p7498
aS'Young Stellar Clusters and Friends'
p7499
aS'Extrasolar Planets Formation and Detection'
p7500
aS'Heineman Prize Lectures'
p7501
aS'Rossi Prize Lecture'
p7502
aS'Warner Prize: Black Hole Astrophysics in the New Century'
p7503
aS'Cosmology, Early Universe, Cosmic Distance Scale'
p7504
aS'Supernovae'
p7505
aS'Supernovae Remnants'
p7506
aS'Instrumentation: Ground Based or Airbourne'
p7507
aS'Red AGN and Seyfert 2 Galaxies'
p7508
aS'Recent Discoveries in the Far UV'
p7509
aS'Radio - Loud AGN'
p7510
aS'Galaxy Clusters across the Spectrum'
p7511
aS'UV and X-ray Observations of Normal Galaxies'
p7512
aS'Evolution of Galaxies, and Galaxies Surveys at Low Redshift'
p7513
aS'Supernovae and Cosmology'
p7514
aS'Probing the Galactic Center'
p7515
aS'Stellar Winds, Circumstellar Matter, and Activity'
p7516
aS'Radio and X-Ray Pulsars'
p7517
aS'Masers, Millimeter and Centimeter Observations of Protostars'
p7518
aS'UV to IR Observations of Protostars'
p7519
aS'Eclipsing Binaries'
p7520
aS'Radio Astronomy Legacy Sky Surveys with ALFA'
p7521
aS'Galaxy Anatomy: from Bars to Halos'
p7522
aS'Results from the Deep Impact Mission'
p7523
aS'Galaxy Clusters at z $>$ 0.5'
p7524
aS'Extrasolar Planets'
p7525
aS'Radio Astronomy Legacy Sky Surveys with the Arecibo L-band Feed Array (ALFA)'
p7526
aS'Recent Discoveries in the Far Ultraviolet'
p7527
aS'Galaxy Morphology and its Evolution'
p7528
aS'Kinematics of the ISM'
p7529
aS'Star Formation Grab Bag II'
p7530
aS'AGN Feedback: Outflows and Black Hole Growth'
p7531
aS'Neutron Stars and Pulsars'
p7532
aS'Pierce Prize: Submillimeter Selected Galaxies'
p7533
aS'Gravity: Lenses, Dark Matter and Waves'
p7534
aS'Brown Dwarfs and Clusters with Planets'
p7535
aS'Galaxies and their Components'
p7536
aS'The Intergalactic Medium in Absorption and Emission'
p7537
aS'Solar Activity and Geomagnetic Storms'
p7538
aS'White Dwarfs'
p7539
aa.